
Allocating common symbols
Common symbol       size              file

clflush_size        0x4               output.o
sReaderContext      0x60              output.o
sigx_app            0x8               output.o
num_dom             0x4               output.o
mszReaders          0x400             output.o
prohibit_iccard_init
                    0x4               output.o
curthread           0x8               output.o
sig_app             0x8               output.o
readerState         0x64              output.o
dom_io              0x800             output.o
acpi_dsdt_system_state
                    0x1e              output.o
ehci_host           0x8               output.o
num_of_processors   0x4               output.o
e801_fake_bx        0x2               output.o
iommu_detected      0x1               output.o
dwReaders           0x8               output.o
readerTracker       0x140             output.o
handler_descriptor_lock
                    0x1               output.o
e801_fake_ax        0x2               output.o

Discarded input sections

 .gomi          0x0000000000000000        0xe output.o

Memory Configuration

Name             Origin             Length             Attributes
*default*        0x0000000000000000 0xffffffffffffffff

Linker script and memory map

                0x0000000040100000                virt = 0x40100000
                0x0000000000100000                phys = 0x100000
                0x0000000040100000                . = virt
                0x0000000040100000                head = .
                0x00000000401000b0                . = (virt + SIZEOF_HEADERS)

.text           0x0000000040101000   0x1150c8 load address 0x0000000000101000
                0x0000000040101000                code = .
 *(.entry)
 .entry         0x0000000040101000     0x6000 output.o
                0x000000004010100c                entry
                0x000000004010109a                cpuinit_start
                0x00000000401012c8                vmm_base_cr3
                0x00000000401012e0                apinit_procs
                0x00000000401012e8                apinit_lock
                0x00000000401012f0                cpuinit_end
                0x0000000040103000                entry_pdp
                0x0000000040104000                entry_pd0
                0x0000000040105000                entry_pd
 *(.text)
 .text          0x0000000040107000   0x10f0c8 output.o
                0x0000000040107654                acpi_smi_hook
                0x00000000401076a1                acpi_iohook
                0x00000000401076f3                acpi_reset
                0x00000000401077f1                acpi_poweroff
                0x000000004010782a                get_acpi_time_raw
                0x000000004010c801                acpi_dsdt_parse
                0x000000004010ccf2                apinitproc0
                0x000000004010cd1b                apic_available
                0x000000004010cd49                ap_start_addr
                0x000000004010cfa3                panic_wakeup_all
                0x000000004010d033                disable_apic
                0x000000004010d0a7                sync_all_processors
                0x000000004010d137                start_all_processors
                0x000000004010d178                assertion_failed
                0x000000004010d1b5                beep_set_freq
                0x000000004010d1e3                beep_on
                0x000000004010d1f3                beep_off
                0x000000004010d842                update_mtrr_and_pat
                0x000000004010da91                cache_get_gpat
                0x000000004010dae4                cache_set_gpat
                0x000000004010db2d                cache_get_attr
                0x000000004010dbe2                cache_get_gmtrr_type
                0x000000004010dbed                cache_get_gmtrr_attr
                0x000000004010dc00                cache_get_gmtrrcap
                0x000000004010dc2e                cache_get_gmtrr
                0x000000004010dd8b                cache_set_gmtrr
                0x000000004010dde5                cache_get_gmsr_amd
                0x000000004010de35                cache_set_gmsr_amd
                0x000000004010e271                callrealmode_endofcodeaddr
                0x000000004010e282                callrealmode_usevcpu
                0x000000004010e28f                callrealmode_printmsg
                0x000000004010e2ac                callrealmode_getsysmemmap
                0x000000004010e309                callrealmode_getshiftflags
                0x000000004010e327                callrealmode_setvideomode
                0x000000004010e345                callrealmode_reboot
                0x000000004010e35f                callrealmode_tcgbios
                0x000000004010e3f3                callrealmode_disk_readmbr
                0x000000004010e432                callrealmode_disk_readlba
                0x000000004010e479                callrealmode_bootcd_getstatus
                0x000000004010e4ce                callrealmode_setcursorpos
                0x000000004010e4f3                callrealmode_startkernel32
                0x000000004010e513                callrealmode_getfontinfo
                0x000000004010e594                get_cpu_id
                0x000000004010e5b0                cpu_emul_cpuid
                0x000000004010e664                cpu_emul_rdmsr
                0x000000004010e6dd                cpu_emul_wrmsr
                0x000000004010e753                cpu_emul_hlt
                0x000000004010e76b                cpu_emul_cli
                0x000000004010e7a4                cpu_emul_sti
                0x000000004010e7eb                cpu_emul_realmode_int
                0x000000004010e967                cpu_emul_xsetbv
                0x00000000401111b0                cpu_interpreter
                0x00000000401134ec                cpu_mmu_get_pte
                0x0000000040113e95                write_linearaddr_ok_b
                0x0000000040113eb7                write_linearaddr_ok_w
                0x0000000040113ec2                write_linearaddr_ok_l
                0x0000000040113ecd                write_linearaddr_b
                0x0000000040113f45                write_linearaddr_w
                0x0000000040113fe8                write_linearaddr_l
                0x0000000040114089                write_linearaddr_q
                0x0000000040114128                read_linearaddr_b
                0x000000004011419f                read_linearaddr_w
                0x000000004011423b                read_linearaddr_l
                0x00000000401142d8                read_linearaddr_q
                0x0000000040114375                read_linearaddr_tss
                0x000000004011441a                write_linearaddr_tss
                0x00000000401184ad                cpu_mmu_spt_tlbflush
                0x00000000401184e8                cpu_mmu_spt_updatecr3
                0x0000000040118781                cpu_mmu_spt_invalidate
                0x0000000040118809                cpu_mmu_spt_pagefault
                0x00000000401189f9                cpu_mmu_spt_extern_mapsearch
                0x0000000040118b3a                cpu_mmu_spt_map_1mb
                0x0000000040118c96                cpu_mmu_spt_clear_all
                0x0000000040118df5                cpu_mmu_spt_init
                0x0000000040119464                cpu_seg_read_b
                0x00000000401194db                cpu_seg_read_w
                0x0000000040119552                cpu_seg_read_l
                0x00000000401195c9                cpu_seg_read_q
                0x0000000040119640                cpu_seg_write_b
                0x00000000401196b8                cpu_seg_write_w
                0x0000000040119730                cpu_seg_write_l
                0x00000000401197a7                cpu_seg_write_q
                0x0000000040119820                cpu_stack_get
                0x000000004011988a                cpu_stack_set
                0x000000004011991f                cpu_stack_push
                0x00000000401199d1                cpu_stack_pop
                0x0000000040119ac0                call_cpuid
                0x0000000040119e99                debug_addstr
                0x0000000040119e9f                debug_gdb
                0x0000000040119ea5                debug_iohook
                0x0000000040119eab                debug_msgregister
                0x0000000040119edb                debug_msgunregister
                0x0000000040119f79                do_exint_pass
                0x000000004011a010                read_gphys_b
                0x000000004011a08c                write_gphys_b
                0x000000004011a10f                read_gphys_w
                0x000000004011a1b5                write_gphys_w
                0x000000004011a266                read_gphys_l
                0x000000004011a30c                write_gphys_l
                0x000000004011a3c0                read_gphys_q
                0x000000004011a466                write_gphys_q
                0x000000004011a517                cmpxchg_gphys_l
                0x000000004011a5e3                cmpxchg_gphys_q
                0x000000004011aa11                gmm_pass_gp2hp
                0x000000004011ab82                idman_reinit_session
                0x000000004011abfd                idman_reinit2
                0x000000004011ac1e                get_idman_session
                0x000000004011ac60                call_initfunc
                0x000000004011acc4                initfunc_init
                0x000000004011c84e                int_fatal
                0x000000004011cbcf                callfunc_and_getint
                0x000000004011cbe3                do_externalint_enable
                0x000000004011cbf8                set_int_handler
                0x000000004011cc17                int_exceptionHandler
                0x000000004011cc22                int_init_ap
                0x000000004011cc76                do_io_nothing
                0x000000004011ccb2                set_iofunc
                0x000000004011cd53                call_io
                0x000000004011ce9c                do_iopass_default
                0x000000004011d033                keyboard_reset
                0x000000004011d078                setkbdled
                0x000000004011d0d9                keyboard_flush
                0x000000004011d100                load_bootsector
                0x000000004011d4c9                copy_bootsector
                0x000000004011d76a                localapic_wait_for_sipi
                0x000000004011d7f7                localapic_change_base_msr
                0x000000004011d843                localapic_mmio_register
                0x000000004011e21a                resume_vm
                0x000000004011e2d5                vmm_main
                0x000000004011e6c0                getsysmemmap
                0x000000004011e748                getfakesysmemmap
                0x000000004011e7cc                phys_to_virt
                0x000000004011e7e2                vmm_start_inf
                0x000000004011e7ee                vmm_term_inf
                0x000000004011e7ff                num_of_available_pages
                0x000000004011e86b                alloc_pages
                0x000000004011e8f4                alloc_page
                0x000000004011e904                alloc
                0x000000004011eb81                alloc2
                0x000000004011ebce                free
                0x000000004011eced                realloc
                0x000000004011ee3e                free_page
                0x000000004011ee51                free_page_phys
                0x000000004011ee6c                mempool_new
                0x000000004011eed7                mempool_free
                0x000000004011ef87                mempool_allocmem
                0x000000004011f16a                mempool_freemem
                0x000000004011f420                sym_to_phys
                0x000000004011f434                phys_in_vmm
                0x000000004011f450                mm_force_unlock
                0x000000004011f479                mm_process_alloc
                0x000000004011f649                mm_process_free
                0x000000004011f690                mm_process_switch
                0x000000004011f6ae                pmap_open_vmm
                0x000000004011f6d9                pmap_open_guest
                0x000000004011f71b                pmap_close
                0x000000004011f721                pmap_getreadlevel
                0x000000004011f72d                pmap_setlevel
                0x000000004011f739                pmap_seek
                0x000000004011f7a6                pmap_read
                0x000000004011f9d1                pmap_write
                0x000000004011fb68                mm_process_unmap_stack
                0x000000004011fd4f                mm_process_unmap
                0x000000004011fe31                mm_process_unmapall
                0x000000004011fed8                pmap_pointer
                0x000000004011ff39                pmap_clear
                0x0000000040120026                pmap_autoalloc
                0x000000004012075d                mm_process_map_stack
                0x0000000040120ac2                mm_process_map_shared_physpage
                0x0000000040120b36                mm_process_map_shared
                0x0000000040120d60                mm_process_map_alloc
                0x0000000040120e92                pmap_dump
                0x0000000040120faa                unmapmem
                0x000000004012108b                mapmem
                0x000000004012155e                cmpxchg_hphys_q
                0x00000000401215bc                cmpxchg_hphys_l
                0x000000004012161a                write_hphys_q
                0x000000004012164e                read_hphys_q
                0x0000000040121685                write_hphys_l
                0x00000000401216b7                read_hphys_l
                0x00000000401216ec                write_hphys_w
                0x000000004012171f                read_hphys_w
                0x0000000040121756                write_hphys_b
                0x0000000040121788                read_hphys_b
                0x00000000401217eb                mapmem_hphys
                0x0000000040121803                alloc_realmodemem
                0x00000000401218a6                mapmem_gphys
                0x00000000401218be                mm_flush_wb_cache
                0x0000000040121cdf                mmio_access_memory
                0x0000000040121e36                mmio_access_page
                0x0000000040121ef7                mmio_register
                0x00000000401220fa                mmio_unregister
                0x0000000040122181                mmio_lock
                0x000000004012219c                mmio_unlock
                0x000000004012222e                msg_findname
                0x00000000401222a8                msg_register
                0x000000004012238a                msg_unregister
                0x0000000040122405                msg_unregisterall
                0x0000000040122491                msg_unregister2
                0x000000004012255e                call_read_msr
                0x0000000040122572                call_write_msr
                0x0000000040122850                load_minios
                0x0000000040123070                backtrace
                0x00000000401234a8                panic
                0x00000000401239a0                auto_reboot
                0x00000000401239bd                panic_test
                0x00000000401239e0                pcpu_list_foreach
                0x0000000040123a1f                pcpu_list_add
                0x0000000040123a71                pcpu_init
                0x00000000401244c5                vprintf
                0x0000000040124500                printf
                0x000000004012453e                vsnprintf
                0x0000000040124582                snprintf
                0x00000000401247e9                sys_msgsetfunc
                0x000000004012488e                sys_msgclose
                0x00000000401248ab                sys_msgret
                0x00000000401248bd                sys_exitprocess
                0x0000000040124b6d                sys_msgsenddesc
                0x0000000040124c25                sys_msgunregister
                0x0000000040125341                sys_msgsendbuf
                0x00000000401254f3                sys_msgsendint
                0x0000000040125792                sys_newprocess
                0x0000000040125833                sys_msgopen
                0x0000000040125973                sys_msgregister
                0x00000000401259f1                process_kill
                0x0000000040125a48                msgsetfunc
                0x0000000040125a5d                msgregister
                0x0000000040125a73                msgopen
                0x0000000040125a86                msgclose
                0x0000000040125a98                msgsendint
                0x0000000040125aac                msgsenddesc
                0x0000000040125ac0                newprocess
                0x0000000040125ad3                msgsendbuf
                0x0000000040125aed                msgunregister
                0x0000000040125aff                exitprocess
                0x0000000040125b12                msgpremapbuf
                0x0000000040125c3c                process_syscall
                0x0000000040125ce8                putchar
                0x0000000040125d26                putchar_set_func
                0x0000000040126027                do_panic_reboot
                0x00000000401260b1                handle_init_to_bsp
                0x00000000401260d2                reboot_test
                0x0000000040126102                savemsr_save
                0x000000004012617e                savemsr_load
                0x00000000401267a6                get_seg_base
                0x0000000040126864                get_seg_access_rights
                0x0000000040126884                segment_wakeup
                0x00000000401268c6                segment_init_ap
                0x0000000040126b8b                serial_putDebugChar
                0x0000000040126b9d                serial_getDebugChar
                0x0000000040126bb2                serial_putchar
                0x0000000040126c06                serial_init_iohook
                0x0000000040126c74                waitcycles
                0x0000000040126c96                usleep
                0x0000000040126d6b                sleep_set_timer_counter
                0x0000000040126ed2                vmctl_svm_init
                0x0000000040126f7c                message_exitcode
                0x00000000401274ff                printexitcode
                0x00000000401276b8                svm_available
                0x0000000040127776                svm_reset
                0x000000004012787a                svm_vminit
                0x0000000040127ab5                svm_vmexit
                0x0000000040127abb                svm_init
                0x0000000040127c05                svm_enable_resume
                0x0000000040127d0a                svm_resume
                0x0000000040127e60                svm_ioio
                0x0000000040127f60                svm_extern_iopass
                0x00000000401280d3                svm_init_signal
                0x00000000401280f6                svm_start_vm
                0x0000000040128bb0                svm_msr_update_lma
                0x0000000040128c25                svm_read_msr
                0x0000000040128eca                svm_write_msr
                0x000000004012941a                svm_np_init
                0x0000000040129502                svm_np_pagefault
                0x0000000040129548                svm_np_tlbflush
                0x000000004012954e                svm_np_updatecr3
                0x0000000040129559                svm_np_clear_all
                0x00000000401295ec                svm_np_extern_mapsearch
                0x0000000040129677                svm_np_map_1mb
                0x00000000401296d0                svm_paging_extern_flush_tlb_entry
                0x00000000401296f7                svm_paging_map_1mb
                0x0000000040129721                svm_paging_flush_guest_tlb
                0x0000000040129760                svm_paging_init
                0x000000004012987e                svm_paging_pagefault
                0x00000000401298aa                svm_paging_tlbflush
                0x00000000401298d1                svm_paging_invalidate
                0x00000000401298fd                svm_paging_npf
                0x0000000040129929                svm_paging_updatecr3
                0x0000000040129951                svm_paging_spt_setcr3
                0x0000000040129986                svm_paging_clear_all
                0x00000000401299b1                svm_paging_get_gpat
                0x00000000401299bc                svm_paging_set_gpat
                0x0000000040129a09                svm_paging_apply_fixed_cr0
                0x0000000040129a2c                svm_paging_apply_fixed_cr4
                0x0000000040129a50                svm_paging_pg_change
                0x0000000040129a56                svm_paging_start
                0x0000000040129a68                svm_panic_dump
                0x0000000040129b40                svm_read_general_reg
                0x0000000040129ca9                svm_write_general_reg
                0x0000000040129ddf                svm_read_control_reg
                0x0000000040129e75                svm_write_control_reg
                0x0000000040129f61                svm_read_sreg_sel
                0x000000004012a02d                svm_read_sreg_acr
                0x000000004012a10c                svm_read_sreg_base
                0x000000004012a22e                svm_read_sreg_limit
                0x000000004012a345                svm_read_ip
                0x000000004012a364                svm_write_ip
                0x000000004012a38a                svm_read_flags
                0x000000004012a3a9                svm_write_flags
                0x000000004012a3c5                svm_read_gdtr
                0x000000004012a3fc                svm_write_gdtr
                0x000000004012a425                svm_read_idtr
                0x000000004012a45c                svm_write_idtr
                0x000000004012a485                svm_write_realmode_seg
                0x000000004012a5d5                svm_writing_sreg
                0x000000004012a6f7                int1a_TCG_StatusCheck
                0x000000004012a7bc                int1a_TCG_HashLogExtendEvent
                0x000000004012a84d                int1a_TCG_PassThroughToTPM
                0x000000004012a8de                int1a_TCG_HashLogEvent
                0x000000004012a95f                int1a_TCG_HashAll
                0x000000004012aa17                int1a_TCG_TSS
                0x000000004012aaa8                int1a_TCG_CompactHashLogExtendEvent
                0x000000004012ab09                tcg_measure
                0x000000004012ae4d                thread_gettid
                0x000000004012ae62                schedule
                0x000000004012b073                thread_new
                0x000000004012b196                thread_wakeup
                0x000000004012b273                thread_will_stop
                0x000000004012b2eb                thread_exit
                0x000000004012b38f                thread_start1
                0x000000004012b3bf                thread_set_process_switch
                0x000000004012b570                get_cpu_time
                0x000000004012b643                get_acpi_time
                0x000000004012b6f3                get_time
                0x000000004012b8d5                timer_new
                0x000000004012b956                timer_set
                0x000000004012ba4c                timer_free
                0x000000004012bc52                tty_putchar
                0x000000004012be06                ttylog_stop
                0x000000004012be16                tty_udp_register
                0x000000004012be68                tty_init_iohook
                0x000000004012be90                vcpu_list_foreach
                0x000000004012becf                load_new_vcpu
                0x000000004012bf89                vga_register
                0x000000004012c00b                vga_is_ready
                0x000000004012c06b                vga_transfer_image
                0x000000004012c0b8                vga_fill_rect
                0x000000004012c0f2                vga_get_screen_size
                0x000000004012c21c                vmmcall
                0x000000004012c275                vmmcall_register
                0x000000004012c2b3                vmmcall_init
                0x000000004012c674                vmmcall_boot_continue
                0x000000004012c6bf                vmmcall_boot_enable
                0x000000004012cf27                register_status_callback
                0x000000004012d03f                vramwrite_clearscreen
                0x000000004012d096                vramwrite_putchar
                0x000000004012d26e                vramwrite_mark1
                0x000000004012d2c0                vramwrite_mark2
                0x000000004012d320                vramwrite_mark3
                0x000000004012d380                vramwrite_save_and_move_cursor
                0x000000004012d3c5                vramwrite_restore_cursor
                0x000000004012d3d7                vramwrite_get_cursor_pos
                0x000000004012d437                vramwrite_init_global
                0x000000004012d444                vramwrite_exit_global
                0x000000004012d4ce                vt_generate_external_int
                0x000000004012d521                vt_generate_pagefault
                0x000000004012d5d7                vmctl_vt_init
                0x000000004012d67f                vt_vmptrld
                0x000000004012d96c                vt_ept_init
                0x000000004012da5c                vt_ept_violation
                0x000000004012dbdf                vt_ept_tlbflush
                0x000000004012dbe5                vt_ept_updatecr3
                0x000000004012dcd7                vt_ept_clear_all
                0x000000004012dd6a                vt_ept_extern_mapsearch
                0x000000004012ddf5                vt_ept_map_1mb
                0x000000004012de48                message_exitreason
                0x000000004012dfb1                printexitreason
                0x000000004012e928                vt_available
                0x000000004012e9c2                vt__vmx_init
                0x000000004012ea0a                vt__vmxon
                0x000000004012eab7                vt_vminit
                0x000000004012eb13                vt_vmexit
                0x000000004012eb2d                vt_init
                0x000000004012eb3d                vt_enable_resume
                0x000000004012ec76                vt_resume
                0x000000004012ee07                vt_io
                0x000000004012ef38                vt_iopass_init
                0x000000004012f0cd                vt_iopass
                0x000000004012f11e                vt_extern_iopass
                0x000000004012fd33                vt_update_exception_bmp
                0x0000000040130370                vt_init_signal
                0x000000004013037b                vt_start_vm
                0x0000000040130761                vt_add_guest_msr
                0x00000000401308a4                vt_read_guest_msr
                0x00000000401308d5                vt_write_guest_msr
                0x0000000040130903                vt_msr_update_lma
                0x00000000401309db                vt_read_msr
                0x0000000040130c7f                vt_write_msr
                0x0000000040130f47                vt_msr_init
                0x0000000040131143                vt_paging_extern_flush_tlb_entry
                0x00000000401311b1                vt_paging_map_1mb
                0x00000000401311d1                vt_paging_flush_guest_tlb
                0x0000000040131231                vt_paging_pagefault
                0x0000000040131274                vt_paging_tlbflush
                0x0000000040131297                vt_paging_invalidate
                0x00000000401312ca                vt_paging_npf
                0x000000004013130d                vt_paging_updatecr3
                0x0000000040131341                vt_paging_spt_setcr3
                0x000000004013136c                vt_paging_clear_all
                0x000000004013139f                vt_paging_get_gpat
                0x00000000401313aa                vt_paging_set_gpat
                0x000000004013140a                vt_paging_apply_fixed_cr0
                0x0000000040131472                vt_paging_apply_fixed_cr4
                0x00000000401314ba                vt_paging_pg_change
                0x000000004013163d                vt_paging_init
                0x00000000401316b8                vt_paging_start
                0x00000000401316e7                vt_panic_dump
                0x0000000040131890                vt_read_general_reg
                0x00000000401319de                vt_write_general_reg
                0x0000000040131afc                vt_read_control_reg
                0x0000000040131b6c                vt_read_sreg_sel
                0x0000000040131c86                vt_read_sreg_acr
                0x0000000040131ce5                vt_read_sreg_base
                0x0000000040131d9d                vt_read_sreg_limit
                0x0000000040131e50                vt_read_ip
                0x0000000040131e5e                vt_write_ip
                0x0000000040131e7e                vt_read_flags
                0x0000000040131ea4                vt_write_flags
                0x0000000040131ecf                vt_read_gdtr
                0x0000000040131ee4                vt_write_gdtr
                0x0000000040131ef9                vt_read_idtr
                0x0000000040131f3d                vt_write_idtr
                0x0000000040131f73                vt_write_control_reg
                0x000000004013244f                vt_get_current_regs_in_vmcs
                0x00000000401326f7                vt_get_vmcs_regs_in_vmcs
                0x0000000040132874                vt_write_realmode_seg
                0x00000000401329b7                vt_writing_sreg
                0x0000000040132a40                vt_reset
                0x0000000040132d1f                prepare_for_sleep
                0x0000000040132df6                cancel_sleep
                0x0000000040132e18                wakeup_main
                0x0000000040132ea0                wakeup_cont
                0x0000000040132fca                wakeup_init
                0x0000000040133014                call_xsetbv
                0x0000000040133080                mpumul_64_64
                0x00000000401330a0                mpudiv_128_32
                0x00000000401330c0                ipchecksum
                0x0000000040133150                asm_vmlaunch_regs_32
                0x00000000401331d0                asm_vmresume_regs_32
                0x0000000040133250                asm_vmrun_regs_32
                0x00000000401332b0                asm_vmlaunch_regs_64
                0x0000000040133390                asm_vmresume_regs_64
                0x0000000040133470                asm_vmrun_regs_64
                0x0000000040133514                callrealmode_start
                0x000000004013352a                callrealmode_start2
                0x00000000401339b6                callrealmode_end
                0x00000000401339b8                move_vmm_area32
                0x00000000401339dd                move_vmm_area64
                0x0000000040133a08                int_handler
                0x0000000040133a80                int_callfunc
                0x0000000040134000                syscall_entry_sysexit
                0x000000004013402c                syscall_entry_lret
                0x000000004013405c                ret_to_user32
                0x0000000040134068                syscall_entry_sysret64
                0x00000000401340b0                ret_to_user64
                0x0000000040135000                processuser_sysenter
                0x0000000040136000                processuser_no_sysenter
                0x0000000040137000                processuser_syscall
                0x0000000040138140                memset
                0x00000000401381c0                memcpy
                0x0000000040138200                strcmp
                0x0000000040138240                memcmp
                0x0000000040138280                strlen
                0x0000000040138298                sx_handler
                0x00000000401382f0                thread_switch
                0x0000000040138310                thread_start0
                0x000000004013834c                monitor_vmcs_read
                0x0000000040138355                get_guest_eptp_value
                0x0000000040138365                get_guest_cr3_value
                0x0000000040138375                monitor_vmcs_write
                0x0000000040138380                hypercall_handler
                0x00000000401383a0                get_page_table_base_GPA
                0x00000000401383b6                get_ept_base_HPA
                0x00000000401383cc                traverseGuestPages
                0x00000000401383d7                saveSystemCallHandlerAddress
                0x0000000040138418                getSystemCallHandlerGPA
                0x0000000040138425                save_guest_status
                0x00000000401387a9                clear_guest_status
                0x0000000040138a97                restore_guest_status
                0x0000000040138db1                getTSSGVA
                0x0000000040138dc1                getGuestRSP
                0x0000000040138de8                closePage
                0x0000000040138df3                allocateNewVMID
                0x0000000040138e09                allocateNewAppID
                0x0000000040138e21                allocateNewApplicationIdentifiers
                0x0000000040138e5c                getMemoryOwnershipTableIndex
                0x0000000040138e69                changePageStatus
                0x0000000040138f68                openPage
                0x0000000040138ff6                getMemoryOwnershipTableEntry
                0x000000004013902e                initializeNewProtectedApplication
                0x0000000040139049                protectCurrentApplication
                0x00000000401390aa                getCurrentProtectedApplication
                0x0000000040139114                findProtectedApplicationFromRIP
                0x000000004013916c                setCurrentProtectedApplication
                0x000000004013917c                traverseIA32ePages
                0x00000000401393c0                traverseIA32ePDPT
                0x0000000040139569                traverseIA32ePDT
                0x0000000040139686                traverseIA32ePT
                0x0000000040139726                gvaToGPA
                0x0000000040139930                mapHPAintoHVA
                0x0000000040139957                unmapHPAintoHVA
                0x0000000040139962                gpaToHPA
                0x0000000040139afc                test_start
                0x0000000040139b48                test_gpaToHPA
                0x0000000040139b82                test_traverseGuestPages
                0x0000000040139bbf                test_logicalCPUStatus
                0x0000000040139be8                restore_register
                0x0000000040139c94                handleSystemCall
                0x0000000040139d00                core_init
                0x0000000040139dba                core_mm_read_guest_phys
                0x0000000040139dcf                core_mm_write_guest_phys
                0x0000000040139de4                alloc_handler_descriptor
                0x0000000040139df4                core_io_modify_handler
                0x0000000040139eb2                core_io_unregister_handler
                0x0000000040139f39                core_io_handle_default
                0x000000004013a1c1                panic_oom
                0x000000004013a1d4                core_io_register_handler
                0x000000004013a308                matched_drhd_u
                0x000000004013a35d                parse_dmar_bios_report
                0x000000004013a3a8                ieee1394_init
                0x000000004013a3e0                iommu_setup
                0x000000004013a3e6                iodom_init
                0x000000004013a5a7                add_remap
                0x000000004013a634                create_dom
                0x000000004013a957                pci_conceal_new_device
                0x000000004013ad15                pci_conceal_config_data_handler
                0x000000004013ad2c                pci_save_config_addr
                0x000000004013ad3e                pci_restore_config_addr
                0x000000004013ad50                pci_append_device
                0x000000004013ad82                pci_config_data_handler
                0x000000004013b0ab                pci_config_addr_handler
                0x000000004013b0f3                pci_register_driver
                0x000000004013b192                pci_read_config_data8
                0x000000004013b1d8                pci_read_config_data16
                0x000000004013b21f                pci_read_config_data32
                0x000000004013b265                pci_write_config_data8
                0x000000004013b2a9                pci_write_config_data16
                0x000000004013b2ee                pci_write_config_data32
                0x000000004013b332                pci_read_config_data_port
                0x000000004013b364                pci_write_config_data_port
                0x000000004013b39a                pci_handle_default_config_write
                0x000000004013b3dc                pci_print_device
                0x000000004013b73c                pci_possible_new_device
                0x000000004013b760                security_storage_check_lba
                0x000000004013ecda                ahci_new
                0x000000004013ef70                ahci_config_read
                0x000000004013efce                ahci_config_write
                0x000000004013f164                ata_bm_handle_prd_table
                0x000000004013f3ad                ata_bm_handle_status
                0x000000004013f46d                ata_bm_handle_command
                0x000000004013f5b0                ata_bm_handler
                0x000000004013f6c8                ata_get_cmd_type
                0x000000004013fc82                ata_handle_queued_status
                0x00000000401404b7                ata_channel_lock
                0x0000000040140533                ata_channel_unlock
                0x00000000401410bb                ata_ctlblk_handler
                0x00000000401411c3                ata_cmdblk_handler
                0x00000000401412ec                ata_ahci_mode
                0x00000000401417ef                ata_init_io_handler
                0x0000000040141892                ata_set_bm_handler
                0x00000000401418f7                ata_set_cmdblk_handler
                0x000000004014193d                ata_set_ctlblk_handler
                0x0000000040141985                ata_config_read
                0x0000000040141a47                ata_config_write
                0x0000000040141be0                ata_init_vendor
                0x0000000040141c07                ata_bm_handle_device_specific
                0x0000000040141d00                atapi_handle_config_data
                0x0000000040141f47                atapi_handle_interrupt_reason
                0x0000000040141fa0                atapi_handle_pio_identify_packet
                0x000000004014212f                atapi_handle_packet_data
                0x000000004014213a                atapi_handle_cmd_packet
                0x00000000401421b4                packet_handle_through
                0x00000000401421e9                packet_handle_nondata
                0x0000000040142203                packet_handle_config
                0x000000004014224f                packet_handle_rw
                0x00000000401422d1                packet_handle_invalid
                0x00000000401422eb                packet_handle_command
                0x0000000040142320                uhci_init
                0x0000000040142bc7                uhci_current_frame_number
                0x0000000040142be0                dump_td_byvirt
                0x0000000040142dad                dump_td
                0x0000000040142e8d                dump_qh
                0x0000000040143055                dump_frame
                0x000000004014315a                uhci_dump_all
                0x000000004014331c                uhci_error_status_string
                0x00000000401435fd                uhci_shadow_buffer
                0x0000000040143882                uhci_framelist_monitor
                0x00000000401457f0                scan_gframelist
                0x00000000401460c3                uhci_create_urb
                0x000000004014621c                uhci_destroy_urb
                0x0000000040146349                uhci_destroy_unlinked_urbs
                0x000000004014640b                uhci_deactivate_urb
                0x0000000040146794                uhci_activate_urb
                0x0000000040146ce8                uhci_reactivate_urb
                0x0000000040146d8e                uhci_submit_control
                0x0000000040147392                uhci_submit_interrupt
                0x00000000401473f6                uhci_submit_bulk
                0x000000004014745a                uhci_check_urb_advance
                0x000000004014749f                uhci_check_advance
                0x00000000401476aa                init_hframelist
                0x000000004014792c                ehci_init
                0x00000000401491b9                ehci_conceal_portroute
                0x00000000401497dd                ehci_dump_qtd
                0x0000000040149863                ehci_dump_qtdm
                0x0000000040149898                ehci_dump_alist
                0x000000004014995b                ehci_dump_urblist
                0x00000000401499f0                ehci_dump_urb
                0x0000000040149ead                ehci_dump_async
                0x000000004014a33c                ehci_dump_all
                0x000000004014b91a                ehci_shadow_buffer
                0x000000004014bbd4                get_gurb_by_address
                0x000000004014bc68                shadow_and_activate_urb
                0x000000004014bf18                ehci_deactivate_urb
                0x000000004014c0b0                deactivate_and_delete_urb
                0x000000004014c327                ehci_check_urb_advance
                0x000000004014c4f7                ehci_check_advance
                0x000000004014c72b                ehci_shadow_async_list
                0x000000004014c845                ehci_cleanup_urbs
                0x000000004014c99a                ehci_end_monitor_async
                0x000000004014ca03                ehci_monitor_async_list
                0x000000004014d0ac                ehci_submit_control
                0x000000004014d625                ehci_submit_bulk
                0x000000004014d630                ehci_submit_interrupt
                0x000000004014f1fa                usbmsc_init_handle
                0x000000004014f5d9                usbhub_init_handle
                0x000000004014f652                hub_portdevice_register
                0x000000004014fd15                usbccid_init_handle
                0x000000004014fe40                usb_set_debug
                0x000000004014fe4c                usb_init
                0x000000004014fe52                usb_find_busses
                0x000000004014ff32                usb_get_busses
                0x000000004014ff3f                usb_get_bus
                0x000000004014ff67                usb_find_devices
                0x000000004014ffb0                usb_open
                0x000000004015001a                usb_close
                0x000000004015002a                usb_resetep
                0x0000000040150035                usb_clear_halt
                0x0000000040150040                usb_reset
                0x000000004015004b                usb_claim_interface
                0x0000000040150059                usb_release_interface
                0x000000004015006b                usb_set_configuration
                0x0000000040150316                usb_set_altinterface
                0x00000000401505c3                usb_control_msg
                0x000000004015091f                usb_get_string
                0x0000000040150c6c                usb_get_string_simple
                0x0000000040150e61                usb_get_descriptor
                0x00000000401511b1                usb_get_descriptor_early
                0x000000004015150c                usb_get_descriptor_by_endpoint
                0x000000004015185e                usb_bulk_write
                0x0000000040151ab4                usb_interrupt_write
                0x0000000040151d0a                usb_bulk_read
                0x0000000040151fe5                usb_interrupt_read
                0x00000000401522c0                usb_register_host
                0x00000000401523d2                usb_unregister_devices
                0x0000000040152404                usb_sc_lock
                0x000000004015247c                usb_sc_unlock
                0x00000000401527a3                free_config_descriptors
                0x00000000401531ac                free_device
                0x000000004015331a                handle_connect_status
                0x000000004015342e                handle_port_reset
                0x000000004015350f                dprintf_port
                0x0000000040153fe1                usb_init_device_monitor
                0x000000004015404b                usb_new_dev_handle
                0x00000000401540e4                usbhid_init_handle
                0x0000000040154220                usb_hook_process
                0x000000004015450b                usb_hook_register
                0x00000000401545ef                usb_hook_unregister
                0x0000000040154670                _dprintf
                0x00000000401546bd                _dprintft
                0x0000000040154778                pro100_io_handler
                0x0000000040154783                pro100_init
                0x000000004015479c                pro100_config_write
                0x00000000401548e1                pro100_config_read
                0x0000000040154a2a                pro100_init_vpn_client
                0x0000000040154a69                pro100_sleep
                0x0000000040154aa7                pro100_beep
                0x0000000040154adf                pro100_get_ctx
                0x0000000040154b82                pro100_alloc_page
                0x0000000040154bbc                pro100_free_page
                0x0000000040154be1                pro100_get_op_size
                0x0000000040154c24                pro100_mem_read
                0x0000000040154c53                pro100_read_send_packet
                0x0000000040154e65                pro100_mem_write
                0x0000000040154e8e                pro100_write
                0x0000000040154ebd                pro100_read
                0x0000000040154efa                pro100_flush
                0x0000000040154f14                pro100_wait_cu_ru_accepable
                0x0000000040154f4f                pro100_init_ru_base_addr
                0x0000000040154faf                pro100_init_cu_base_addr
                0x000000004015500f                pro100_send_packet_to_line
                0x0000000040155163                pro100_exec_cu_op
                0x00000000401552bc                pro100_generate_int
                0x00000000401552eb                pro100_proc_guest_op
                0x00000000401554e6                pro100_write_recv_packet
                0x000000004015567a                pro100_get_int_bit_string
                0x00000000401556f2                pro100_get_stat_ack_string
                0x000000004015575f                pro100_get_cu_command_string
                0x00000000401557e1                pro100_get_ru_command_string
                0x000000004015582b                pro100_init_recv_buffer
                0x0000000040155962                pro100_alloc_recv_buffer
                0x00000000401559d1                pro100_new
                0x0000000040155a9e                pro100_poll_ru
                0x0000000040155b97                pro100_hook_read
                0x0000000040155d56                pro100_hook_write
                0x000000004015602c                pro100_mm_handler
                0x00000000401583b3                storage_premap_buf
                0x00000000401583be                storage_premap_handle_sectors
                0x0000000040158712                storage_get_num_hc
                0x0000000040158744                storage_hc_open
                0x0000000040158824                storage_hc_close
                0x000000004015886e                storage_hc_hook_register
                0x00000000401588f3                storage_hc_hook_unregister
                0x000000004015898d                storage_hc_register
                0x0000000040158b58                storage_hc_unregister
                0x0000000040158c5d                storage_hc_scandev
                0x0000000040158ca1                storage_hc_dev_open
                0x0000000040158ddf                storage_hc_dev_atacommand
                0x0000000040158fb2                storage_hc_dev_close
                0x000000004015907a                storage_io_init
                0x000000004015908f                storage_io_deinit
                0x000000004015909a                storage_io_get_num_devices
                0x0000000040159158                storage_io_aget_size
                0x00000000401592bf                storage_io_aread
                0x00000000401594db                storage_io_awrite
                0x0000000040159c52                storage_handle_sectors
                0x0000000040159e9b                storage_new
                0x000000004015a0e2                storage_free
                0x000000004015a2e1                storage_init
                0x000000004015a515                aes_xts_init
                0x000000004015a548                crypto_find
                0x000000004015a59b                crypto_register
                0x000000004015a5eb                crypto_init
                0x000000004015a642                crypto_none_init
                0x000000004015a67a                vpn_GetCurrentCpuId
                0x000000004015a685                vpn_GetTickCount
                0x000000004015a6b5                vpn_NewTimer
                0x000000004015a6cf                vpn_SetTimer
                0x000000004015a6e3                vpn_FreeTimer
                0x000000004015a6ee                vpn_GetPhysicalNicInfo
                0x000000004015a6fd                vpn_SendPhysicalNic
                0x000000004015a70c                vpn_SetPhysicalNicRecvCallback
                0x000000004015a71b                vpn_GetVirtualNicInfo
                0x000000004015a72b                vpn_SendVirtualNic
                0x000000004015a73b                vpn_SetVirtualNicRecvCallback
                0x000000004015a74b                vpn_premap_PhysicalNicRecv
                0x000000004015a764                vpn_premap_VirtualNicRecv
                0x000000004015a77d                vpn_premap_recvbuf
                0x000000004015a788                vpn_ic_rsa_sign
                0x000000004015a82f                vpn_new_nic
                0x000000004015ae51                msg_vpn_GetCurrentCpuId
                0x000000004015ae6b                msg_vpn_ic_rsa_sign
                0x000000004015af17                msg_vpn_GetTickCount
                0x000000004015af55                msg_vpn_GetPhysicalNicInfo
                0x000000004015afb9                msg_vpn_SendPhysicalNic
                0x000000004015b073                msg_vpn_SetPhysicalNicRecvCallback
                0x000000004015b0bf                msg_vpn_GetVirtualNicInfo
                0x000000004015b123                msg_vpn_SendVirtualNic
                0x000000004015b1dd                msg_vpn_SetVirtualNicRecvCallback
                0x000000004015b229                msg_vpn_NewTimer
                0x000000004015b299                msg_vpn_SetTimer
                0x000000004015b36c                msg_vpn_FreeTimer
                0x000000004015b3d2                vpn_start
                0x000000004015b75c                vpn_user_init
                0x000000004015b7c0                SeFreeConfigEntryList
                0x000000004015b81e                SeGetConfigEntry
                0x000000004015b88f                SeGetConfigStr
                0x000000004015b8bc                SeGetConfigBool
                0x000000004015b968                SeGetConfigInt
                0x000000004015b98c                SeGetConfigInt64
                0x000000004015b9b0                SeGetConfigBin
                0x000000004015b9d4                SeIsSplitChar
                0x000000004015ba47                SeGetKeyAndValue
                0x000000004015bbd7                SeLoadConfigEntryListFromBuf
                0x000000004015bd4f                SeLoadConfigEntryList
                0x000000004015bda0                SePKeyPasswordCallbackFunction
                0x000000004015bdcd                SeDhFree
                0x000000004015be07                SeRsaVerifyWithPadding
                0x000000004015bee1                SeRsaSignWithPadding
                0x000000004015bfa5                SeRsaPublicDecrypt
                0x000000004015c04e                SeRsaPrivateEncrypt
                0x000000004015c0f7                SeRsaPrivateDecrypt
                0x000000004015c198                SeRsaPublicEncrypt
                0x000000004015c239                SeGetCertSha1
                0x000000004015c281                SeGetCertMd5
                0x000000004015c2c9                SeBinToBigNum
                0x000000004015c314                SeBufToBigNum
                0x000000004015c32f                SeDhCompute
                0x000000004015c3bb                SeBigNumToBuf
                0x000000004015c454                SeRsaPublicSize
                0x000000004015c49f                SeRsaPublicToBin
                0x000000004015c503                SeRsaPublicToBuf
                0x000000004015c547                SeDhNew
                0x000000004015c61d                SeDhNewGroup2
                0x000000004015c632                SeCheckSignature
                0x000000004015c65c                SeGetKeyFromCert
                0x000000004015c698                SeCompareCert
                0x000000004015c6c2                SeCheckCertAndKey
                0x000000004015c6ec                SeIsBase64
                0x000000004015c7ad                SeFreePKey
                0x000000004015c7bd                SeFreeKey
                0x000000004015c7e5                SeIsCertSignedByCert
                0x000000004015c855                SeCheckCert
                0x000000004015c8bb                SeBioToKey
                0x000000004015c9c9                SeGetCertIssuerName
                0x000000004015ca55                SeGetCertSubjectName
                0x000000004015cadf                SeFreeX509
                0x000000004015caef                SeFreeCert
                0x000000004015cb1d                SeFreeBio
                0x000000004015cb2d                SeNewBio
                0x000000004015cb40                SeCertToBio
                0x000000004015cba1                SeKeyToBio
                0x000000004015cc9d                SeRsaGen
                0x000000004015ce08                SeBioToBuf
                0x000000004015cea9                SeCertToBuf
                0x000000004015cef4                SeSaveCert
                0x000000004015cf55                SeKeyToBuf
                0x000000004015cfa0                SeSaveKey
                0x000000004015d004                SeX509ToCert
                0x000000004015d0bc                SeBioToCert
                0x000000004015d107                SeBigNumToStr
                0x000000004015d173                SeBufToBio
                0x000000004015d1cc                SeBufToKey
                0x000000004015d238                SeLoadKey
                0x000000004015d2e3                SeCloneKey
                0x000000004015d34d                SeBufToCert
                0x000000004015d3a2                SeLoadCert
                0x000000004015d3ef                SeCloneCert
                0x000000004015d440                SeSha1
                0x000000004015d460                SeHashForSignBySHA1
                0x000000004015d50a                SeRsaSignWithSha1
                0x000000004015d5ad                SeRsaVerifyWithSha1
                0x000000004015d64f                SeMacSha1
                0x000000004015d7a6                SeMacSha196
                0x000000004015d7ed                SeMd5
                0x000000004015d80d                SeDes3Encrypt
                0x000000004015d8a5                SeDes3Decrypt
                0x000000004015d93f                SeDesNewKeyValue
                0x000000004015d991                SeDes3NewKey
                0x000000004015da12                SeDesNewKey
                0x000000004015da23                SeDesRandKeyValue
                0x000000004015da3f                SeDesRandKey
                0x000000004015da89                SeDes3RandKey
                0x000000004015dad2                SeDesFreeKeyValue
                0x000000004015dafa                SeDes3FreeKey
                0x000000004015db34                SeDesFreeKey
                0x000000004015db3f                SeRand
                0x000000004015db53                SeRand64
                0x000000004015db6f                SeRand32
                0x000000004015db8a                SeRand16
                0x000000004015dba6                SeRand8
                0x000000004015dbc2                SeRand1
                0x000000004015dbd5                SeInitCrypto
                0x000000004015dc18                SeFreeCrypto
                0x000000004015dc30                SeIkeStrToPassword
                0x000000004015dc9d                SeIkePhase1CryptIdToKeySize
                0x000000004015dcbc                SeIkePhase2CryptIdToKeySize
                0x000000004015dcdb                SeIkeStrToPhase1CryptId
                0x000000004015dd41                SeIkeStrToPhase1HashId
                0x000000004015dd80                SeIkeStrToPhase2CryptId
                0x000000004015ddeb                SeIkeStrToPhase2HashId
                0x000000004015de2a                SeIkeIsZeroIP
                0x000000004015de58                SeIkeInitIPv6Address
                0x000000004015dea5                SeIkeInitIPv4Address
                0x000000004015dee8                SeIkeGetIPv6Address
                0x000000004015df22                SeIkeGetIPv4Address
                0x000000004015df3b                SeIkeIpAddressToStr
                0x000000004015df95                SeIkeBuildDataPayload
                0x000000004015dfde                SeIkeBuildTransformValue
                0x000000004015e098                SeIkeBuildTransformValueList
                0x000000004015e100                SeIkeBuildTransformPayload
                0x000000004015e17d                SeIkeBuildIdPayload
                0x000000004015e1f4                SeIkeBuildCertPayload
                0x000000004015e257                SeIkeBuildCertRequestPayload
                0x000000004015e2ba                SeIkeBuildNoticePayload
                0x000000004015e347                SeIkeBuildDeletePayload
                0x000000004015e417                SeIkeGetFirstPayloadType
                0x000000004015e436                SeIkeBuildPayloadList
                0x000000004015e541                SeIkeBuildProposalPayload
                0x000000004015e5ec                SeIkeBuildSaPayload
                0x000000004015e675                SeIkeBuildPayload
                0x000000004015e74e                SeIkeGetPayload
                0x000000004015e79c                SeIkeGetPayloadNum
                0x000000004015e7d8                SeIkeNewPayload
                0x000000004015e7f6                SeIkeNewDataPayload
                0x000000004015e846                SeIkeNewSaPayload
                0x000000004015e871                SeIkeNewProposalPayload
                0x000000004015e8fb                SeIkeNewTransformPayload
                0x000000004015e946                SeIkeNewIdPayload
                0x000000004015e9c6                SeIkeNewCertPayload
                0x000000004015ea2a                SeIkeNewCertRequestPayload
                0x000000004015ea8e                SeIkeNewNoticePayload
                0x000000004015eb2a                SeIkeNewDeletePayload
                0x000000004015eb66                SeIkeNewTransformValue
                0x000000004015eb95                SeIkeFreeTransformValueList
                0x000000004015ebd1                SeIkeParseTransformValueList
                0x000000004015ed3d                SeIkeParseTransformPayload
                0x000000004015eda9                SeIkeFreeTransformPayload
                0x000000004015edd7                SeIkeParseIdPayload
                0x000000004015ee54                SeIkeFreeIdPayload
                0x000000004015ee82                SeIkeParseCertPayload
                0x000000004015eeeb                SeIkeFreeCertPayload
                0x000000004015ef19                SeIkeParseCertRequestPayload
                0x000000004015ef82                SeIkeFreeCertRequestPayload
                0x000000004015efb0                SeIkeParseNoticePayload
                0x000000004015f074                SeIkeFreeNoticePayload
                0x000000004015f0b8                SeIkeFreeDeletePayload
                0x000000004015f117                SeIkeParseDeletePayload
                0x000000004015f225                SeIkeParseDataPayload
                0x000000004015f25f                SeIkeFreeDataPayload
                0x000000004015f272                SeIkeFreePayloadList
                0x000000004015f2ae                SeIkeParsePayloadListEx
                0x000000004015f431                SeIkeParsePayloadList
                0x000000004015f444                SeIkeParseProposalPayload
                0x000000004015f4f4                SeIkeParseSaPayload
                0x000000004015f5c1                SeIkeParsePayload
                0x000000004015f6c1                SeIkeFreeProposalPayload
                0x000000004015f705                SeIkeFreeSaPayload
                0x000000004015f731                SeIkeFreePayload
                0x000000004015f7d8                SeIkeEncrypt
                0x000000004015f893                SeIkeEncryptWithPadding
                0x000000004015f943                SeIkeBuild
                0x000000004015fa9c                SeIkeDecrypt
                0x000000004015fb57                SeIkeFree
                0x000000004015fb93                SeIkeParseEx
                0x000000004015fd7b                SeIkeParse
                0x000000004015fd8b                SeIkeParseHeader
                0x000000004015fd9b                SeIkeNew
                0x000000004015fe20                VPN_IPsec_Client_Start
                0x000000004015fe46                VPN_IPsec_Client_Stop
                0x000000004015fe56                SeIntInit
                0x000000004015fe79                SeIntFree
                0x000000004015fe93                VPN_IPsec_Init
                0x000000004015feef                VPN_IPsec_Free
                0x000000004015ff21                SeSysMemoryAlloc
                0x000000004015ff3d                SeSysMemoryReAlloc
                0x000000004015ff66                SeSysMemoryFree
                0x000000004015ff7e                SeSysGetCurrentCpuId
                0x000000004015ff96                SeSysNewLock
                0x000000004015ffae                SeSysLock
                0x000000004015ffc6                SeSysUnlock
                0x000000004015ffde                SeSysFreeLock
                0x000000004015fff6                SeSysGetTickCount
                0x000000004016000e                SeSysNewTimer
                0x0000000040160032                SeSysSetTimer
                0x000000004016004a                SeSysFreeTimer
                0x0000000040160062                SeSysGetPhysicalNicInfo
                0x000000004016007f                SeSysSendPhysicalNic
                0x00000000401600a5                SeSysSetPhysicalNicRecvCallback
                0x00000000401600c7                SeSysGetVirtualNicInfo
                0x00000000401600e4                SeSysSendVirtualNic
                0x000000004016010d                SeSysSetVirtualNicRecvCallback
                0x0000000040160132                SeSysSaveData
                0x0000000040160159                SeSysLoadData
                0x0000000040160180                SeSysFreeData
                0x000000004016019b                SeSysRsaSign
                0x00000000401601d3                SeSysLog
                0x0000000040160201                SeRsaSign
                0x00000000401602a0                Se4ParseIpPacketUDPv4
                0x000000004016039b                Se4FreeIpHeaderInfo
                0x00000000401603cf                Se4IpChecksum
                0x0000000040160442                Se4IpCheckChecksum
                0x0000000040160491                Se4ParseIpPacketICMPv4
                0x00000000401605c0                Se4BuildIcmpEchoPacket
                0x000000004016067c                Se4AdjustTcpMss
                0x0000000040160821                Se4Tick
                0x0000000040160839                Se4BroadcastMacAddress
                0x0000000040160844                Se4SendEthPacket
                0x000000004016091b                Se4SendIpFragmentNow
                0x0000000040160944                Se4InitArpEntryList
                0x0000000040160954                Se4FreeArpEntryList
                0x0000000040160990                Se4FlushArpEntryList
                0x0000000040160a3d                Se4SearchArpEntryList
                0x0000000040160ac9                Se4AddArpEntryList
                0x0000000040160bb6                Se4SearchArpWaitList
                0x0000000040160bfe                Se4InitArpWaitList
                0x0000000040160c0e                Se4FreeArpWaitList
                0x0000000040160c4a                Se4InsertIpWait
                0x0000000040160ccc                Se4InitIpWaitList
                0x0000000040160cdc                Se4FreeIpWait
                0x0000000040160d05                Se4FlushIpWaitList
                0x0000000040160dc7                Se4FreeIpWaitList
                0x0000000040160e03                Se4InitIpCombineList
                0x0000000040160e13                Se4SearchIpCombineList
                0x0000000040160e89                Se4InitIpFragmentList
                0x0000000040160e99                Se4InsertIpCombine
                0x0000000040160f98                Se4FreeIpFragmentList
                0x0000000040160fd4                Se4FreeIpCombine
                0x000000004016100c                Se4FlushIpCombineList
                0x00000000401610f5                Se4FreeIpCombineList
                0x0000000040161143                Se4Free
                0x0000000040161187                Se4And
                0x00000000401611b6                Se4GetNetworkAddress
                0x00000000401611c1                Se4Or
                0x00000000401611f0                Se4Not
                0x000000004016121a                Se4GetBroadcastAddress
                0x000000004016125f                Se4GetHostAddress
                0x0000000040161279                Se4GenerateSubnetMask32
                0x000000004016129a                Se4IPToStr
                0x00000000401612dd                Se4ZeroIP
                0x00000000401612f8                Se4StrToIP
                0x0000000040161399                Se4IPToUINT
                0x00000000401613bb                Se4StrToIP32
                0x00000000401613cd                Se4IsZeroIP
                0x00000000401613e0                Se4Init
                0x00000000401614f6                Se4Cmp
                0x000000004016152f                Se4CheckUnicastAddress
                0x0000000040161580                Se4IsInSameNetwork
                0x00000000401615cf                Se4CmpIpCombineList
                0x000000004016166d                Se4SendWaitingIpWait
                0x000000004016174e                Se4MacIpRelationKnown
                0x00000000401617fa                Se4CmpArpWaitEntry
                0x0000000040161831                Se4CmpArpEntry
                0x0000000040161868                Se4ParseIpPacket
                0x00000000401619be                Se4IsBroadcastAddress
                0x00000000401619d2                Se4SendArpResponse
                0x0000000040161ab9                Se4SendArpDoProcess
                0x0000000040161bbf                Se4ProcessArpWaitList
                0x0000000040161c73                Se4MainProc
                0x0000000040161ca4                Se4SendArpRequest
                0x0000000040161d19                Se4UINTToIP
                0x0000000040161d3b                Se4IPToStr32
                0x0000000040161d5f                Se4GenerateSubnetMask
                0x0000000040161d71                Se4IsSubnetMask
                0x0000000040161dae                Se4RecvArpResponse
                0x0000000040161df3                Se4RecvArpRequest
                0x0000000040161f1d                Se4RecvArp
                0x0000000040161fda                Se4SendRawIp
                0x000000004016213d                Se4SendIpFragment
                0x0000000040162270                Se4SendIp
                0x0000000040162352                Se4SendUdp
                0x0000000040162484                Se4SendIcmp
                0x000000004016253d                Se4SendIcmpEchoResponse
                0x00000000401625d2                Se4RecvIpComplete
                0x000000004016269f                Se4CombineIp
                0x000000004016289d                Se4SendIcmpEchoRequest
                0x0000000040162932                Se4RecvIp
                0x0000000040162bcc                Se4RecvEthPacket
                0x0000000040162c60                Se6FreeIpHeaderInfo
                0x0000000040162c94                Se6IpChecksum
                0x0000000040162d07                Se6CalcChecksum
                0x0000000040162dc8                Se6ParseIpPacketICMPv6
                0x0000000040163006                Se6ParseIpPacketUDPv6
                0x0000000040163155                Se6BuildIcmpEchoPacket
                0x000000004016323e                Se6BroadcastMacAddress
                0x0000000040163249                Se6SendEthPacket
                0x0000000040163320                Se6SendIpFragmentNow
                0x0000000040163349                Se6InitNeighborEntryList
                0x0000000040163359                Se6FreeNeighborEntryList
                0x0000000040163395                Se6FlushNeighborEntryList
                0x0000000040163442                Se6SearchNeighborEntryList
                0x0000000040163499                Se6AddNeighborEntryList
                0x0000000040163583                Se6SearchNdpWaitList
                0x00000000401635d2                Se6InitNdpWaitList
                0x00000000401635e2                Se6FreeNdpWaitList
                0x000000004016361e                Se6InsertIpWait
                0x00000000401636ad                Se6InitIpWaitList
                0x00000000401636bd                Se6FreeIpWait
                0x00000000401636e6                Se6FreeIpWaitList
                0x0000000040163722                Se6InitIpCombineList
                0x0000000040163732                Se6SearchIpCombineList
                0x00000000401637d6                Se6InitIpFragmentList
                0x00000000401637e6                Se6FreeIpFragmentList
                0x0000000040163822                Se6FreeIpCombine
                0x000000004016385d                Se6FreeIpCombineList
                0x00000000401638ab                Se6Free
                0x00000000401638fb                Se6Tick
                0x0000000040163913                Se6InsertIpCombine
                0x0000000040163a4a                Se6FlushIpCombineList
                0x0000000040163b36                Se6FlushIpWaitList
                0x0000000040163bfe                Se6GenerateEui64Address
                0x0000000040163c5f                Se6GenerateMulticastMacAddress
                0x0000000040163c95                Se6GetAllNodeMulticastAddr
                0x0000000040163cc1                Se6GetAllRouterMulticastAddr
                0x0000000040163ced                Se6And
                0x0000000040163d2b                Se6GetPrefixAddress
                0x0000000040163d3a                Se6Or
                0x0000000040163d78                Se6Not
                0x0000000040163dac                Se6GetHostAddress
                0x0000000040163de8                Se6GenerateSubnetMask
                0x0000000040163e4d                Se6GetSoliciationMulticastAddr
                0x0000000040163efe                Se6LocalSubnet
                0x0000000040163f12                Se6Cmp
                0x0000000040163f3e                Se6GetIPAddrType
                0x000000004016404c                Se6IsInSameNetwork
                0x0000000040164113                Se6SendRawIp
                0x0000000040164285                Se6SendIpFragment
                0x00000000401642a1                Se6SendIp
                0x000000004016441e                Se6SendUdp
                0x000000004016454a                Se6SendIcmp
                0x0000000040164646                Se6SendIcmpNeighborSoliciation
                0x00000000401647bc                Se6SendNeighborSoliciationDoProcess
                0x0000000040164876                Se6SendNeighborSoliciation
                0x00000000401648fe                Se6ProcessNdpWaitList
                0x00000000401649b8                Se6SendIcmpNeighborAdvertisement
                0x0000000040164afc                Se6SendIcmpEchoResponse
                0x0000000040164bc1                Se6SendIcmpEchoRequest
                0x0000000040164c86                Se6IsSubnetMask
                0x0000000040164ce8                Se6SubnetMaskToInt
                0x0000000040164d42                Se6SendIcmpRouterAdvertisement
                0x0000000040164f1a                Se6MainProc
                0x0000000040164f74                Se6CmpIpCombineList
                0x0000000040165005                Se6SendWaitingIpWait
                0x00000000401650fc                Se6MacIpRelationKnown
                0x000000004016521e                Se6CmpNdpWaitEntry
                0x000000004016525f                Se6CmpNeighborEntry
                0x00000000401652a0                Se6ParseIpPacket
                0x0000000040165442                Se6IsZeroIP
                0x0000000040165462                Se6CheckUnicastAddress
                0x0000000040165496                Se6IsNetworkPrefixAddress
                0x00000000401654d8                Se6IsGuestNode
                0x000000004016557c                Se6AddGuestNode
                0x0000000040165650                Se6RecvIpComplete
                0x0000000040165907                Se6CombineIp
                0x0000000040165b1d                Se6RecvIp
                0x0000000040165d5a                Se6RecvEthPacket
                0x0000000040165dcc                Se6IPToStr
                0x0000000040165f2a                Se6IPItemStrToChars
                0x000000004016600a                Se6CheckIPItemStr
                0x0000000040166073                Se6ZeroIP
                0x0000000040166093                Se6StrToIP
                0x000000004016625f                Se6GenerateEui64LocalAddress
                0x00000000401662d2                Se6Init
                0x0000000040166431                Se6GenerateEui64GlobalAddress
                0x0000000040166532                Se6CheckSubnetLength
                0x0000000040166550                SeTimerEntryCompare
                0x0000000040166590                SeEthGetInfo
                0x00000000401665b4                SeEthSendAdd
                0x00000000401665e7                SeEthParseEthernetPacket
                0x00000000401666e8                SeEthGenRandMacAddress
                0x000000004016673a                SeLoad
                0x000000004016679f                SeSave
                0x00000000401667bb                SeTick
                0x00000000401667cb                SeGetCurrentCpuId
                0x00000000401667db                SeNewLock
                0x0000000040166816                SeEthNew
                0x000000004016692c                SeTimerNew
                0x00000000401669a2                SeLock
                0x00000000401669ec                SeUnlock
                0x0000000040166a13                SeTick64Internal
                0x0000000040166a69                SeTick64
                0x0000000040166a88                SeInitKernel
                0x0000000040166ac2                SeEthGetNextRecvPacket
                0x0000000040166b0b                SeEthDeleteOldSenderMacList
                0x0000000040166bdf                SeEthIsSenderMacAddressExistsInList
                0x0000000040166c86                SeEthNicCallback
                0x0000000040166d87                SeEthAddSenderMacList
                0x0000000040166e81                SeEthSend
                0x0000000040166f07                SeEthSendAll
                0x0000000040166fd8                SeTimerAdjust
                0x000000004016705e                SeTimerSet
                0x00000000401670e4                SeTimerCallback
                0x00000000401671f4                SeDeleteLock
                0x000000004016721c                SeEthFree
                0x00000000401672c5                SeTimerFree
                0x000000004016731f                SeFreeKernel
                0x0000000040167335                SeLogArgs
                0x0000000040167373                SeWarning
                0x00000000401673b9                SeError
                0x00000000401673ff                SeInfo
                0x0000000040167445                SeFatal
                0x000000004016748b                SeDebug
                0x00000000401674d1                SeDebugBin
                0x000000004016753f                SeLog
                0x0000000040167580                SeB64CodeToChar
                0x00000000401675c6                SeB64CharToCode
                0x000000004016760d                SeIsZero
                0x0000000040167656                SeReplaceListPointer
                0x00000000401676b2                SeIsInListStr
                0x0000000040167723                SeIsInList
                0x000000004016776e                SeCompareStr
                0x0000000040167790                SeSetSortFlag
                0x000000004016779e                SeSetCmp
                0x00000000401677bf                SeFastSwap
                0x00000000401677f3                SeQSort
                0x0000000040167b0b                SeSort
                0x0000000040167b43                SeBSearch
                0x0000000040167c12                SeSearch
                0x0000000040167c7a                SeFifoSize
                0x0000000040167c8d                SeDumpBuf
                0x0000000040167cb5                SeSeekBuf
                0x0000000040167ceb                SeClearBuf
                0x0000000040167d04                SeSwap16
                0x0000000040167d1f                SeSwap32
                0x0000000040167d49                SeSwap64
                0x0000000040167da0                SeMalloc
                0x0000000040167de2                SeNewBuf
                0x0000000040167e24                SeNewFifo
                0x0000000040167e66                SeReAlloc
                0x0000000040167ed7                SeAdjustBufSize
                0x0000000040167f0c                SeClearFifo
                0x0000000040167f49                SeAdd
                0x0000000040167fb3                SeInsert
                0x00000000401680e1                SeInsertStr
                0x0000000040168134                SeDelete
                0x00000000401681ef                SeDeleteAll
                0x0000000040168226                SePop
                0x000000004016828d                SePush
                0x00000000401682f0                SeMemSize
                0x0000000040168322                SeFree
                0x0000000040168351                SeFreeBuf
                0x0000000040168379                SeFreeBufWithoutBuffer
                0x0000000040168389                SeFreeFifo
                0x00000000401683b1                SeFreeList
                0x00000000401683da                SeFreeQueue
                0x0000000040168403                SeFreeStack
                0x000000004016842c                SeIsLittleEndian
                0x000000004016843f                SeEndian16
                0x0000000040168463                SeEndian32
                0x0000000040168486                SeEndian64
                0x00000000401684ad                SeIsBigEndian
                0x00000000401684c5                SeCmp
                0x0000000040168534                SeCmpEx
                0x0000000040168569                SeCmpBuf
                0x00000000401685aa                SeCopy
                0x00000000401685d2                SeClone
                0x000000004016861f                SeSwap
                0x0000000040168679                SeWriteBuf
                0x00000000401686f0                SeMemToBuf
                0x0000000040168756                SeRandBuf
                0x000000004016879c                SeCloneBuf
                0x00000000401687b7                SeWriteBufLine
                0x000000004016880f                SeWriteBufBuf
                0x000000004016882a                SeWriteBufInt
                0x000000004016886a                SeWriteBufInt64
                0x00000000401688ad                SeWriteBufStr
                0x000000004016891b                SeAddBufStr
                0x000000004016895a                SeReadDump
                0x00000000401689bf                SePeekFifo
                0x00000000401689fd                SePeekNext
                0x0000000040168a3b                SeReadFifo
                0x0000000040168b28                SeGetNext
                0x0000000040168b72                SeGetNextInt
                0x0000000040168ba8                SeWriteFifo
                0x0000000040168c3c                SeInsertQueue
                0x0000000040168c72                SeInsertQueueInt
                0x0000000040168ca6                SeCopyToArray
                0x0000000040168cca                SeToArray
                0x0000000040168d0f                SeZero
                0x0000000040168d31                SeZeroMalloc
                0x0000000040168d69                SeNewList
                0x0000000040168dbc                SeCloneList
                0x0000000040168e0a                SeNewQueue
                0x0000000040168e3e                SeNewStack
                0x0000000040168e79                SeB64Decode
                0x0000000040169048                SeB64Encode
                0x0000000040169201                SeReadBuf
                0x000000004016929b                SeReadBufFromBuf
                0x0000000040169337                SeReadRemainBuf
                0x000000004016935f                SeReadBufInt
                0x0000000040169394                SeReadBufInt64
                0x00000000401693cc                SeReadBufStr
                0x0000000040169480                SeBuildICMPv6OptionValue
                0x000000004016950f                SeBuildICMPv6Options
                0x00000000401695ba                SeParseICMPv6Options
                0x0000000040169693                SeFreePacketList
                0x00000000401696cf                SeFreePacketListWithoutBuffer
                0x000000004016970b                SeGetNextHeaderFromQueue
                0x0000000040169737                SeBuildAndAddIPv6PacketOptionHeader
                0x00000000401697d4                SeBuildIPv6Packet
                0x00000000401699b9                SeBuildIPv6PacketWithFragment
                0x0000000040169b75                SeParseIPv6ExtHeader
                0x0000000040169c62                SeParseIPv6Packet
                0x0000000040169cdd                SeParsePacketL3IPv6
                0x0000000040169d1e                SeParsePacketL3IPv4
                0x0000000040169dd7                SeParsePacketL3ARPv4
                0x0000000040169e01                SeParsePacketL2
                0x0000000040169ea3                SeFreePacket
                0x0000000040169eb3                SeParsePacket
                0x0000000040169f50                SeSecCmpIkeSa
                0x000000004016a028                SeSecCalcP2Iv
                0x000000004016a0dc                SeSecCalcP1Iv
                0x000000004016a189                SeSecCalcKEYMATFull
                0x000000004016a293                SeSecCalcKEYMAT
                0x000000004016a35a                SeSecCalcKa
                0x000000004016a42f                SeSecCalcP1KeySet
                0x000000004016a646                SeSecForceReconnect
                0x000000004016a67f                SeSecLifeSeconds64bit
                0x000000004016a69f                SeSecGetIPsecSa
                0x000000004016a6eb                SeSecNewIkeSa
                0x000000004016a79c                SeSecFreeP1KeySet
                0x000000004016a7ea                SeSecGenIkeSaMessageId
                0x000000004016a859                SeSecGenIkeSaInitCookie
                0x000000004016a8c8                SeSecInitSaList
                0x000000004016a902                SeSecSearchIPsecSaBySpi
                0x000000004016a991                SeSecSearchIkeSaBySpi
                0x000000004016aa5c                SeSecSearchIkeSa
                0x000000004016ab28                SeSecNewSpi
                0x000000004016ab3f                SeSecGenIPsecSASpi
                0x000000004016abae                SeSecStrToAuthMethod
                0x000000004016ac19                SeSecTick
                0x000000004016ac33                SeSecCheckIPsecSaExpires
                0x000000004016acf6                SeSecCheckIkeSaExpires
                0x000000004016adb5                SeSecSetTimerCallback
                0x000000004016add5                SeSecAddTimer
                0x000000004016adf5                SeSecDoInterval
                0x000000004016ae66                SeSecNewIPsecSa
                0x000000004016afd3                SeSecSetRecvUdpCallback
                0x000000004016aff3                SeSecSetRecvEspCallback
                0x000000004016b013                SeSecSetRecvVirtualIpCallback
                0x000000004016b033                SeSecSendUdp
                0x000000004016b07c                SeSecProcessIkeSaMsgPhase1
                0x000000004016b985                SeSecSendIkeSaMsgPhase2
                0x000000004016bea7                SeSecSendIkeSaMsgPhase2FinalHash
                0x000000004016c047                SeSecProcessIkeSaMsgPhase2
                0x000000004016c4a6                SeSecSendIkeSaMsgInfo
                0x000000004016c70e                SeSecSendIkeSaMsgInfoSimple
                0x000000004016c776                SeSecSendIPsecSaDeleteMsg
                0x000000004016c7fa                SeSecFreeIPsecSa
                0x000000004016c87a                SeSecDeleteExpiredIPsecSa
                0x000000004016c920                SeSecProcessIkeSaMsgInfo
                0x000000004016cc45                SeSecProcessIkeSaMsg
                0x000000004016cc99                SeSecUdpRecvCallback
                0x000000004016cf05                SeSecSendIkeSaDeleteMsg
                0x000000004016cfa2                SeSecFreeIkeSa
                0x000000004016d15b                SeSecFreeSaList
                0x000000004016d1d4                SeSecFreeMain
                0x000000004016d1e4                SeSecFree
                0x000000004016d213                SeSecDeleteExpiredIkeSa
                0x000000004016d376                SeSecStartVpnConnect
                0x000000004016d9aa                SeSecProcessMain
                0x000000004016da9c                SeSecTimerCallback
                0x000000004016daaf                SeSecInitMain
                0x000000004016dad4                SeSecInit
                0x000000004016dc08                SeSecSendEsp
                0x000000004016dc41                SeSecVirtualIpRecvCallback
                0x000000004016de4a                SeSecSendVirtualIp
                0x000000004016de72                SeSecEspRecvCallback
                0x000000004016e020                SeMakeCharArray
                0x000000004016e054                SeFreeToken
                0x000000004016e0a2                SeNullTokenList
                0x000000004016e0d6                SeDefaultTokenSplitChars
                0x000000004016e0e1                Se4BitToHex
                0x000000004016e0f6                SeHexTo4Bit
                0x000000004016e132                SeStrCmp
                0x000000004016e1c6                SeStrnCmp
                0x000000004016e293                SeToUpper
                0x000000004016e2a7                SeStrnCmpi
                0x000000004016e372                SeStrCmpi
                0x000000004016e422                SeToLower
                0x000000004016e436                SeStrCheckLen
                0x000000004016e472                SeStrCheckSize
                0x000000004016e490                SeStrLen
                0x000000004016e4b7                SeStrSize
                0x000000004016e4cf                SeStrCpy
                0x000000004016e59a                SeStrCat
                0x000000004016e63c                SeStrUpper
                0x000000004016e67c                SeStrLower
                0x000000004016e6bc                SeToInt64
                0x000000004016e712                SeToInt
                0x000000004016e760                SeToStr64
                0x000000004016e827                SeToStr
                0x000000004016e8e1                SeToHex
                0x000000004016e995                SeToHex64
                0x000000004016ea49                SeHexToInt
                0x000000004016ead1                SeHexToInt64
                0x000000004016eb5b                SeTrimLeft
                0x000000004016ec08                SeTrimRight
                0x000000004016ed1a                SeTrim
                0x000000004016ed3f                SeCopyStr
                0x000000004016ed94                SeTrimCopy
                0x000000004016edc1                SeUniqueToken
                0x000000004016ef1b                SeSearchStrEx
                0x000000004016f06f                SeSearchStri
                0x000000004016f07f                SeSearchStr
                0x000000004016f08f                SeCalcReplaceStrEx
                0x000000004016f14a                SeReplaceStrEx
                0x000000004016f29f                SeReplaceStr
                0x000000004016f2b0                SeReplaceStri
                0x000000004016f2c1                SeTrimCrlf
                0x000000004016f308                SeStartWith
                0x000000004016f3ae                SeEndWith
                0x000000004016f417                SeIsEmptyStr
                0x000000004016f461                SeNormalizeCrlf
                0x000000004016f4f4                SeIsCharInStr
                0x000000004016f54c                SeParseToken
                0x000000004016f6e7                SeParseTokenWithNullStr
                0x000000004016f844                SeToStr3
                0x000000004016f992                SeIsAllUpperStr
                0x000000004016fa04                SeIsAllLowerStr
                0x000000004016fa76                SeFormatEx
                0x000000004016ff89                SeFormatArgs
                0x000000004016ffe9                SeFormat
                0x000000004017001f                SeBinToStr
                0x00000000401700c6                SeBinToStrEx
                0x000000004017016f                SeMacToStr
                0x00000000401701c0                SeStrToBin
                0x00000000401702af                SeStrToBinEx
                0x0000000040170322                SeStrToMac
                0x0000000040170335                SeReadNextLine
                0x0000000040170400                SeVpnRecvIpV6PacketCallback
                0x0000000040170450                SeVpnRecvIpV4PacketCallback
                0x00000000401704a0                SeVpnInitIpStack
                0x0000000040170802                SeVpnFreeIpStack
                0x00000000401708a2                SeVpnMainInit
                0x00000000401709bb                SeVpnMainFree
                0x00000000401709df                SeVpnRecvEtherPacket
                0x0000000040170a46                SeVpnSendEtherPacket
                0x0000000040170a6b                SeVpnMainProcRecvEtherPacket
                0x0000000040170b1a                SeVpnStatusChanged
                0x0000000040170b2c                SeVpnMainProcess
                0x0000000040170c2a                SeVpnMainHandler
                0x0000000040170c77                SeVpnEthRecvCallback
                0x0000000040170c8f                SeVpnTimerCallback
                0x0000000040170ca7                SeVpnTick
                0x0000000040170cbb                SeVpnAddTimer
                0x0000000040170ccf                SeVpnDoInterval
                0x0000000040170d3f                SeVpnFreeConfig
                0x0000000040170d4f                SeVpnFree
                0x0000000040170da0                SeVpnLoadConfig
                0x00000000401720fe                SeVpnInit
                0x0000000040172220                SeVpn4ClientSetTimerCallback
                0x0000000040172233                SeVpn4ClientSetRecvUdpCallback
                0x0000000040172246                SeVpn4ClientSetRecvEspCallback
                0x0000000040172259                SeVpn4ClientSetRecvVirtualIpCallback
                0x000000004017226c                SeVpn4ClientSendVirtualIp
                0x00000000401722ab                SeVpn4ClientSendEsp
                0x000000004017232b                SeVpn4ClientSendUdp
                0x00000000401723b6                SeVpn4IPsecSendPing
                0x00000000401724fe                SeVpn4IPsecInputFromPhysical
                0x00000000401725c9                SeVpn4IPsecInputFromVirtual
                0x000000004017263d                SeVpn4FreeIPsec
                0x0000000040172651                SeVpn4InitSecConfig
                0x0000000040172832                SeVpn4InitIPsec
                0x0000000040172903                SeVpn4DoInterval
                0x000000004017291b                SeVpn4Tick
                0x0000000040172933                SeVpn4ClientGetTick
                0x0000000040172948                SeVpn4IPsecMainProc
                0x00000000401729d0                SeVpn4MainProc
                0x00000000401729eb                SeVpn4SetTimer
                0x00000000401729fe                SeVpn4ClientAddTimer
                0x0000000040172a16                SeVpn4DhcpSendResponse
                0x0000000040172b2b                SeVpn4DhcpOptionsToBuf
                0x0000000040172be9                SeVpn4NewDhcpOption
                0x0000000040172c50                SeVpn4DhcpBuildDhcpOptionList
                0x0000000040172e2e                SeVpn4DhcpSearchOption
                0x0000000040172e6a                SeVpn4DhcpFreeOptionList
                0x0000000040172ec0                SeVpn4DhcpParseOptionListMain
                0x0000000040172fae                SeVpn4DhcpParseOptionList
                0x00000000401730a1                SeVpn4DhcpServer
                0x000000004017336c                SeVpn4RecvPacketPhysical
                0x0000000040173441                SeVpn4RecvPacketVirtual
                0x00000000401735a3                SeVpn4Init
                0x0000000040173608                SeVpn4Free
                0x0000000040173640                SeVpn6ClientSetTimerCallback
                0x0000000040173653                SeVpn6ClientSetRecvUdpCallback
                0x0000000040173666                SeVpn6ClientSetRecvEspCallback
                0x0000000040173679                SeVpn6ClientSetRecvVirtualIpCallback
                0x000000004017368c                SeVpn6ClientSendVirtualIp
                0x00000000401736cb                SeVpn6ClientSendEsp
                0x000000004017376b                SeVpn6ClientSendUdp
                0x0000000040173820                SeVpn6IPsecSendPing
                0x0000000040173a06                SeVpn6UpdateGuestOsIpAddress
                0x0000000040173ada                SeVpn6IPsecInputFromPhysical
                0x0000000040173ba5                SeVpn6IPsecInputFromVirtual
                0x0000000040173bd9                SeVpn6InitSecConfig
                0x0000000040173dcb                SeVpn6InitIPsec
                0x0000000040173eac                SeVpn6FreeIPsec
                0x0000000040173ec0                SeVpn6DoInterval
                0x0000000040173ed8                SeVpn6Tick
                0x0000000040173ef0                SeVpn6ClientGetTick
                0x0000000040173f05                SeVpn6IPsecMainProc
                0x0000000040173f95                SeVpn6MainProc
                0x0000000040173fb0                SeVpn6SetTimer
                0x0000000040173fc3                SeVpn6ClientAddTimer
                0x0000000040173fdb                SeVpn6RecvPacketPhysical
                0x000000004017405d                SeVpn6RecvPacketVirtual
                0x0000000040174194                SeVpn6Init
                0x000000004017420a                SeVpn6Free
                0x0000000040174240                crypt_sys_rsa_sign
                0x00000000401745d5                msg_usb_bulk_read
                0x0000000040174635                msg_usb_bulk_write
                0x0000000040174695                msg_usb_claim_interface
                0x00000000401746db                msg_usb_close
                0x0000000040174735                msg_usb_control_msg
                0x00000000401747aa                msg_usb_find_busses
                0x00000000401747e8                msg_usb_find_devices
                0x0000000040174826                msg_usb_get_busses
                0x000000004017488d                msg_usb_get_string_simple
                0x00000000401748e9                msg_usb_init
                0x00000000401748fe                msg_usb_open
                0x0000000040174977                msg_usb_release_interface
                0x00000000401749bd                msg_usb_reset
                0x0000000040174a00                IDMan_StReadSetData
                0x00000000401750e5                idman_user_init
                0x0000000040175140                IDMan_IPIdPassListMalloc
                0x000000004017522b                IDMan_IPRetJudgment
                0x00000000401752a7                IDMan_IPFinalizeReader
                0x00000000401752c9                IDMan_IPFinalize
                0x000000004017531f                IDMan_IPInitialize
                0x0000000040175428                IDMan_IPInitializeReader
                0x0000000040175455                IDMan_getMemoryFree
                0x000000004017549d                IDMan_PaddingParamChk
                0x0000000040175562                IDMan_CmPadding
                0x000000004017571e                IDMan_CmPadding2
                0x000000004017589a                IDMan_IPgetCertPKCS
                0x0000000040175f92                IDMan_IPgetCertIdxPKCS
                0x0000000040176465                IDMan_IPCheckPKC
                0x000000004017668e                IDMan_CheckCardStatus
                0x00000000401766c0                IDMan_IPgSParamChk
                0x00000000401767f0                IDMan_IPgIdxSParamChk
                0x0000000040176828                IDMan_IPgetPrivateKey
                0x0000000040176a1b                IDMan_IPgetHash
                0x0000000040176b12                IDMan_IPCrSignature
                0x0000000040176c7a                IDMan_generateSignature
                0x0000000040176db4                IDMan_generateSignatureByIndex
                0x0000000040176edb                IDMan_EncryptByIndex
                0x0000000040177004                IDMan_IPgCParamChk
                0x00000000401770f6                IDMan_getCertificate
                0x0000000040177418                IDMan_IPgCIndexParamChk
                0x0000000040177451                IDMan_getCertificateByIndex
                0x00000000401777e8                IDMan_getStaticPassword
                0x0000000040177b00                IDMan_IPuAPKCS11ParamChk
                0x0000000040177c01                IDMan_IPuAPKCS11IdxParamChk
                0x0000000040177c28                IDMan_IPgetCertPkeyPKCSx
                0x00000000401780eb                IDMan_IPgetCertPkeyIdxPKCSx
                0x0000000040178514                IDMan_IPgetCertPkeyPKCSy
                0x0000000040178662                IDMan_IPCheckCrlPkcX
                0x000000004017879f                IDMan_IPgetMakeRandData
                0x0000000040178817                IDMan_IPMkRandHash
                0x00000000401788d4                IDMan_IPgetPrivateKeyPKCSx
                0x0000000040178aa7                IDMan_IPSignatureVerify
                0x0000000040178c20                IDMan_userAuthPKCS11
                0x00000000401790a5                IDMan_userAuthPKCS11ByIndex
                0x0000000040179530                IDMan_IPvSParamChk
                0x00000000401796ae                IDMan_IPvSIdxParamChk
                0x0000000040179711                IDMan_IPMkPublicKeyObj
                0x0000000040179855                IDMan_IPCheckSignature
                0x0000000040179a0f                IDMan_verifySignature
                0x0000000040179bec                IDMan_verifySignatureByIndex
                0x0000000040179db0                CardEstablishContext
                0x0000000040179dc8                CardReleaseContext
                0x0000000040179df9                CardListReaders
                0x0000000040179e11                CardConnect
                0x0000000040179e4f                CardDisconnect
                0x0000000040179e6c                CardStatus
                0x0000000040179ebd                CardTransmit
                0x0000000040179ef9                SelectFileDF
                0x0000000040179fec                SelectFileEF
                0x000000004017a0d7                Verify
                0x000000004017a1eb                InternalAuth
                0x000000004017a32f                ReadBinary
                0x000000004017a91f                UpdateBinary
                0x000000004017aa49                GetICCardData
                0x000000004017ae30                GetUlByTxt
                0x000000004017ae6f                GetVerByTex
                0x000000004017af57                GetUlByByte
                0x000000004017af9c                TransHex2Tex
                0x000000004017b02f                TransTex2Hex
                0x000000004017b0e6                GetLength
                0x000000004017b153                SetLength
                0x000000004017b1b8                GetTlvByBuf
                0x000000004017b535                GetDirDataByTlv
                0x000000004017b65a                GetOdfDataByTlv
                0x000000004017b7cd                GetTokenDataByTlv
                0x000000004017bc33                AddObjTblByTlv
                0x000000004017c2d7                AddCertDataByBuf
                0x000000004017c3dd                AddIdPassDataByBuf
                0x000000004017c77d                GetValueData
                0x000000004017cb20                AddElem
                0x000000004017cbbe                SetElem
                0x000000004017cc85                GetElem
                0x000000004017ccc1                GetAttrValType
                0x000000004017ce35                DestroyAttribute
                0x000000004017ce7f                DestroyTlvData
                0x000000004017ce94                DestroyElem
                0x000000004017cf1a                DestroyList
                0x000000004017cf57                DestroySessionData
                0x000000004017cf95                DestroyTokenData
                0x000000004017cff5                DestroySlotData
                0x000000004017d031                DelElem
                0x000000004017d0a0                C_GetFunctionList
                0x000000004017d0b2                C_Initialize
                0x000000004017d21f                C_Finalize
                0x000000004017d2ba                C_GetInfo
                0x000000004017d340                C_GetSlotList
                0x000000004017dc24                C_GetSlotInfo
                0x000000004017dd0c                C_GetTokenInfo
                0x000000004017e543                C_GetMechanismList
                0x000000004017e614                C_GetMechanismInfo
                0x000000004017e6d0                C_OpenSession
                0x000000004017e88b                C_CloseSession
                0x000000004017e964                C_CloseAllSessions
                0x000000004017ea70                C_GetSessionInfo
                0x000000004017eaec                C_Login
                0x000000004017ef43                C_Logout
                0x000000004017f05a                C_FindObjectsInit
                0x000000004017f2d1                C_FindObjects
                0x000000004017f82a                C_FindObjectsFinal
                0x000000004017f8a0                C_GetAttributeValue
                0x000000004017fbc1                C_SignInit
                0x000000004017fc88                C_Sign
                0x000000004018000f                C_DigestInit
                0x000000004018008a                C_DigestUpdate
                0x0000000040180112                C_DigestFinal
                0x0000000040180259                C_VerifyInit
                0x0000000040180320                C_Verify
                0x0000000040180492                C_CreateObject
                0x000000004018073f                C_DestroyObject
                0x00000000401807ff                C_SetAttributeValue
                0x0000000040181409                C_GetCardStatus
                0x00000000401814a0                IDMan_StFree
                0x00000000401814b0                IDMan_StMemcpy
                0x00000000401814d4                IDMan_StMemset
                0x00000000401814f2                IDMan_StMalloc
                0x0000000040181539                IDMan_StMemcmp
                0x0000000040181592                IDMan_StStrlen
                0x00000000401815ac                IDMan_StStrcat
                0x00000000401815e9                IDMan_StStrchr
                0x0000000040181626                IDMan_StStrcpy
                0x000000004018164d                IDMan_StStrcmp
                0x0000000040181698                StIsspace
                0x0000000040181715                StIsdigit
                0x0000000040181727                IDMan_StAtoi
                0x0000000040181783                IDMan_StAtol
                0x00000000401817eb                IDMan_CmMkHash
                0x00000000401819a6                IDMan_CmChgRSA
                0x0000000040181b6f                IDMan_CmGetDN
                0x0000000040181e16                IDMan_CmGetCertificateSign
                0x0000000040182040                IDMan_CmGetPublicKey
                0x000000004018221c                IDMan_CmMakeRand
                0x00000000401822ba                IDMan_CmCheckCRL
                0x0000000040182640                IDMan_SCardEstablishContext
                0x000000004018265d                IDMan_SCardReleaseContext
                0x0000000040182668                IDMan_SCardListReaders
                0x0000000040182698                IDMan_SCardConnect
                0x00000000401826c8                IDMan_SCardDisconnect
                0x00000000401826d3                IDMan_SCardStatus
                0x0000000040182755                IDMan_SCardSizeLongToChar
                0x0000000040182796                IDMan_SCardSetBinay
                0x0000000040182b35                IDMan_SCardTransmit
                0x0000000040182ba0                EHDestroyEventHandler
                0x0000000040182c0d                EHInitEventHandler
                0x0000000040182cc3                EHStatusHandler
                0x0000000040182e60                HPSearchHotPluggables
                0x00000000401831b0                PHGetProtocol
                0x000000004018358b                PHSetProtocol
                0x00000000401835f4                RFAddReader
                0x000000004018370f                RFRemoveReader
                0x00000000401837c9                RFReaderInfoById
                0x00000000401837f9                RFCheckReaderEventState
                0x0000000040183830                SCardEstablishContext
                0x0000000040183920                SCardListReaders
                0x00000000401839cd                SCardConnect
                0x0000000040183c51                SCardDisconnect
                0x0000000040183e02                SCardBeginTransaction
                0x0000000040183e56                SCardEndTransaction
                0x000000004018401e                SCardStatus
                0x0000000040184229                SCardReleaseContext
                0x00000000401842ef                SCardTransmit
                0x0000000040184540                SetATR
                0x00000000401847ad                GetIFSCData
                0x0000000040184803                GetBWICWIData
                0x00000000401848a1                IFDHCloseChannel
                0x000000004018492d                IFDHGetCapabilities
                0x000000004018496c                IFDHSetProtocolParameters
                0x000000004018506b                IFDHPowerICC
                0x000000004018526a                IFDHTransmitToICC
                0x000000004018552a                IFDHControl
                0x0000000040185643                IFDHICCPresence
                0x00000000401856f8                IFDHCreateChannel
                0x00000000401857ac                FindBaudRateTable
                0x00000000401857ec                ExchangePPSData
                0x0000000040185ed6                InitLeaderCardProtocol
                0x0000000040185fef                T1XfrBlockTPDU
                0x000000004018665c                T1NegociateIFSD
                0x00000000401867a4                CardStateConfirm
                0x00000000401867d9                GetCardStatus
                0x00000000401868d0                PowerOn
                0x0000000040186a90                PowerOff
                0x0000000040186bf8                CardMechanical
                0x0000000040186d10                TransmitPPS
                0x0000000040186eaa                TransmitCommand
                0x0000000040186f77                ReceiveReply
                0x000000004018713c                BlockSendCardT1
                0x0000000040187394                ReadDataT0
                0x0000000040187459                T0XfrBlockCHAR
                0x00000000401879df                T0XfrBlockTPDU
                0x0000000040187a61                T1XfrBlockExtendedAPDU
                0x0000000040187ddb                OpenUSB
                0x0000000040188175                WriteUSB
                0x00000000401881a6                ReadUSB
                0x0000000040188204                CloseUSB
                0x0000000040188274                AES_set_encrypt_key
                0x0000000040188680                AES_set_decrypt_key
                0x00000000401888a6                AES_encrypt
                0x0000000040188d5f                AES_decrypt
                0x0000000040189200                BIO_set
                0x00000000401892d5                BIO_new
                0x000000004018934e                BIO_free
                0x00000000401893fd                BIO_vfree
                0x0000000040189408                BIO_clear_flags
                0x0000000040189413                BIO_test_flags
                0x000000004018941e                BIO_set_flags
                0x0000000040189427                BIO_get_callback
                0x0000000040189431                BIO_set_callback
                0x000000004018943b                BIO_set_callback_arg
                0x0000000040189445                BIO_get_callback_arg
                0x000000004018944f                BIO_method_name
                0x000000004018945c                BIO_method_type
                0x0000000040189467                BIO_read
                0x0000000040189562                BIO_write
                0x0000000040189666                BIO_puts
                0x0000000040189758                BIO_gets
                0x0000000040189848                BIO_indent
                0x000000004018988d                BIO_ctrl
                0x0000000040189963                BIO_ptr_ctrl
                0x000000004018998e                BIO_int_ctrl
                0x00000000401899a4                BIO_callback_ctrl
                0x0000000040189a70                BIO_ctrl_pending
                0x0000000040189a8a                BIO_ctrl_wpending
                0x0000000040189aa4                BIO_push
                0x0000000040189af2                BIO_pop
                0x0000000040189b57                BIO_get_retry_BIO
                0x0000000040189ba6                BIO_get_retry_reason
                0x0000000040189baf                BIO_find_type
                0x0000000040189be4                BIO_next
                0x0000000040189bfa                BIO_free_all
                0x0000000040189c28                BIO_dup_chain
                0x0000000040189d17                BIO_copy_next_retry
                0x0000000040189d44                BIO_get_ex_new_index
                0x0000000040189d63                BIO_set_ex_data
                0x0000000040189d72                BIO_get_ex_data
                0x0000000040189d81                BIO_number_read
                0x0000000040189d95                BIO_number_written
                0x0000000040189eff                BN_set_params
                0x0000000040189f92                BN_get_params
                0x0000000040189fc7                BN_value_one
                0x0000000040189fd2                BN_options
                0x000000004018a014                BN_num_bits_word
                0x000000004018a06f                BN_num_bits
                0x000000004018a099                BN_clear_free
                0x000000004018a100                BN_free
                0x000000004018a149                BN_init
                0x000000004018a15e                BN_new
                0x000000004018a1d1                bn_expand2
                0x000000004018a229                BN_copy
                0x000000004018a317                BN_dup
                0x000000004018a36b                bn_dup_expand
                0x000000004018a3ed                BN_swap
                0x000000004018a450                BN_clear
                0x000000004018a489                BN_get_word
                0x000000004018a4ab                BN_set_word
                0x000000004018a50e                BN_bin2bn
                0x000000004018a651                BN_bn2bin
                0x000000004018a6bf                BN_ucmp
                0x000000004018a70c                BN_cmp
                0x000000004018a7c0                BN_set_bit
                0x000000004018a885                BN_clear_bit
                0x000000004018a903                BN_is_bit_set
                0x000000004018a940                BN_mask_bits
                0x000000004018a9dc                BN_set_negative
                0x000000004018a9fc                bn_cmp_words
                0x000000004018aa5e                bn_cmp_part_words
                0x000000004018aaf0                BN_bn2hex
                0x000000004018abd6                BN_bn2dec
                0x000000004018ade5                BN_hex2bn
                0x000000004018afc2                BN_dec2bn
                0x000000004018b173                BN_asc2bn
                0x000000004018b1e3                BN_print
                0x000000004018b6c7                BN_pseudo_rand
                0x000000004018b6e1                BN_rand
                0x000000004018b6fb                BN_bntest_rand
                0x000000004018b715                BN_rand_range
                0x000000004018b72b                BN_pseudo_rand_range
                0x000000004018b750                BN_mod_word
                0x000000004018b7a5                BN_div_word
                0x000000004018b88b                BN_sub_word
                0x000000004018b98a                BN_add_word
                0x000000004018ba5d                BN_mul_word
                0x000000004018bf44                BIO_s_mem
                0x000000004018bf4f                BIO_new_mem_buf
                0x000000004018bfc8                BUF_MEM_new
                0x000000004018c02f                BUF_MEM_free
                0x000000004018c06f                BUF_MEM_grow
                0x000000004018c169                BUF_MEM_grow_clean
                0x000000004018c27f                BUF_memdup
                0x000000004018c2f4                BUF_strlcpy
                0x000000004018c358                BUF_strndup
                0x000000004018c3d7                BUF_strdup
                0x000000004018c403                BUF_strlcat
                0x000000004018c43d                BUF_reverse
                0x000000004018c494                OpenSSL_add_all_ciphers
                0x000000004018c940                OpenSSL_add_all_digests
                0x000000004018cab0                CRYPTO_get_new_lockid
                0x000000004018cb68                CRYPTO_num_locks
                0x000000004018cb73                CRYPTO_get_dynlock_create_callback
                0x000000004018cb80                CRYPTO_get_dynlock_lock_callback
                0x000000004018cb8d                CRYPTO_get_dynlock_destroy_callback
                0x000000004018cb9a                CRYPTO_set_dynlock_create_callback
                0x000000004018cba7                CRYPTO_set_dynlock_lock_callback
                0x000000004018cbb4                CRYPTO_set_dynlock_destroy_callback
                0x000000004018cbc1                CRYPTO_get_locking_callback
                0x000000004018cbce                CRYPTO_get_add_lock_callback
                0x000000004018cbdb                CRYPTO_set_locking_callback
                0x000000004018cbe8                CRYPTO_set_add_lock_callback
                0x000000004018cbf5                CRYPTO_THREADID_set_numeric
                0x000000004018cc28                CRYPTO_THREADID_set_pointer
                0x000000004018cc5e                CRYPTO_THREADID_set_callback
                0x000000004018cc7c                CRYPTO_THREADID_get_callback
                0x000000004018cc89                CRYPTO_THREADID_current
                0x000000004018ccd3                CRYPTO_THREADID_cmp
                0x000000004018cce3                CRYPTO_THREADID_cpy
                0x000000004018ccf3                CRYPTO_THREADID_hash
                0x000000004018ccfd                CRYPTO_get_id_callback
                0x000000004018cd0a                CRYPTO_set_id_callback
                0x000000004018cd17                CRYPTO_thread_id
                0x000000004018cd30                CRYPTO_get_lock_name
                0x000000004018cd83                OPENSSL_ia32cap_loc
                0x000000004018cd8e                OPENSSL_cpuid_setup
                0x000000004018cd94                OPENSSL_showfatal
                0x000000004018cddf                OPENSSL_isservice
                0x000000004018cdea                OpenSSLDie
                0x000000004018ce0c                CRYPTO_lock
                0x000000004018cea3                CRYPTO_add_lock
                0x000000004018cf27                CRYPTO_get_dynlock_value
                0x000000004018cfc6                CRYPTO_destroy_dynlockid
                0x000000004018d0be                CRYPTO_get_new_dynlockid
                0x000000004018d2da                OPENSSL_stderr
                0x000000004018d2e8                DES_encrypt1
                0x000000004018d6f6                DES_encrypt2
                0x000000004018da01                DES_encrypt3
                0x000000004018db5e                DES_decrypt3
                0x000000004018dcbe                DES_ncbc_encrypt
                0x000000004018e2fb                DES_ede3_cbc_encrypt
                0x000000004018ed56                DH_generate_key
                0x000000004018ed66                DH_compute_key
                0x000000004018ed76                DH_OpenSSL
                0x000000004018ed84                DH_set_default_method
                0x000000004018ed91                DH_get_default_method
                0x000000004018edb4                DH_set_method
                0x000000004018ee01                DH_new_method
                0x000000004018ef17                DH_new
                0x000000004018ef27                DH_free
                0x000000004018f007                DH_up_ref
                0x000000004018f034                DH_get_ex_new_index
                0x000000004018f053                DH_set_ex_data
                0x000000004018f062                DH_get_ex_data
                0x000000004018f071                DH_size
                0x000000004018fd7a                EVP_aes_128_cbc
                0x000000004018fd85                EVP_aes_128_cfb128
                0x000000004018fd90                EVP_aes_128_ofb
                0x000000004018fd9b                EVP_aes_128_ecb
                0x000000004018fda6                EVP_aes_192_cbc
                0x000000004018fdb1                EVP_aes_192_cfb128
                0x000000004018fdbc                EVP_aes_192_ofb
                0x000000004018fdc7                EVP_aes_192_ecb
                0x000000004018fdd2                EVP_aes_256_cbc
                0x000000004018fddd                EVP_aes_256_cfb128
                0x000000004018fde8                EVP_aes_256_ofb
                0x000000004018fdf3                EVP_aes_256_ecb
                0x000000004018fdfe                EVP_aes_128_cfb1
                0x000000004018fe09                EVP_aes_192_cfb1
                0x000000004018fe14                EVP_aes_256_cfb1
                0x000000004018fe1f                EVP_aes_128_cfb8
                0x000000004018fe2a                EVP_aes_192_cfb8
                0x000000004018fe35                EVP_aes_256_cfb8
                0x0000000040190156                EVP_bf_cbc
                0x0000000040190161                EVP_bf_cfb64
                0x000000004019016c                EVP_bf_ofb
                0x0000000040190177                EVP_bf_ecb
                0x000000004019049a                EVP_cast5_cbc
                0x00000000401904a5                EVP_cast5_cfb64
                0x00000000401904b0                EVP_cast5_ofb
                0x00000000401904bb                EVP_cast5_ecb
                0x0000000040190a7b                EVP_des_cbc
                0x0000000040190a86                EVP_des_cfb64
                0x0000000040190a91                EVP_des_ofb
                0x0000000040190a9c                EVP_des_ecb
                0x0000000040190aa7                EVP_des_cfb1
                0x0000000040190ab2                EVP_des_cfb8
                0x00000000401910e6                EVP_des_ede_cbc
                0x00000000401910f1                EVP_des_ede_cfb64
                0x00000000401910fc                EVP_des_ede_ofb
                0x0000000040191107                EVP_des_ede_ecb
                0x0000000040191112                EVP_des_ede3_cbc
                0x000000004019111d                EVP_des_ede3_cfb64
                0x0000000040191128                EVP_des_ede3_ofb
                0x0000000040191133                EVP_des_ede3_ecb
                0x000000004019113e                EVP_des_ede3_cfb1
                0x0000000040191149                EVP_des_ede3_cfb8
                0x0000000040191154                EVP_des_ede
                0x000000004019115f                EVP_des_ede3
                0x00000000401914e7                EVP_idea_cbc
                0x00000000401914f2                EVP_idea_cfb64
                0x00000000401914fd                EVP_idea_ofb
                0x0000000040191508                EVP_idea_ecb
                0x0000000040191a4f                EVP_rc2_cbc
                0x0000000040191a5a                EVP_rc2_cfb64
                0x0000000040191a65                EVP_rc2_ofb
                0x0000000040191a70                EVP_rc2_ecb
                0x0000000040191a7b                EVP_rc2_64_cbc
                0x0000000040191a86                EVP_rc2_40_cbc
                0x0000000040191ae9                EVP_rc4
                0x0000000040191af4                EVP_rc4_40
                0x0000000040191c6a                EVP_desx_cbc
                0x0000000040191c78                DES_ecb3_encrypt
                0x0000000040191d48                DES_options
                0x0000000040191d9c                DES_ecb_encrypt
                0x0000000040192564                ERR_get_implementation
                0x0000000040192576                ERR_set_implementation
                0x00000000401925df                ERR_load_ERR_strings
                0x0000000040192711                ERR_load_strings
                0x0000000040192741                ERR_unload_strings
                0x0000000040192793                ERR_free_strings
                0x00000000401927a8                ERR_get_string_table
                0x00000000401927c1                ERR_get_err_state_table
                0x00000000401927db                ERR_release_err_state_table
                0x0000000040192800                ERR_lib_error_string
                0x0000000040192840                ERR_func_error_string
                0x0000000040192880                ERR_reason_error_string
                0x00000000401928ef                ERR_error_string_n
                0x0000000040192a67                ERR_error_string
                0x0000000040192a96                ERR_remove_thread_state
                0x0000000040192adb                ERR_remove_state
                0x0000000040192aeb                ERR_get_state
                0x0000000040192de3                ERR_peek_last_error_line_data
                0x0000000040192e04                ERR_peek_last_error_line
                0x0000000040192e2b                ERR_peek_last_error
                0x0000000040192e56                ERR_peek_error_line_data
                0x0000000040192e77                ERR_peek_error_line
                0x0000000040192e9e                ERR_peek_error
                0x0000000040192ec9                ERR_get_error_line_data
                0x0000000040192eea                ERR_get_error_line
                0x0000000040192f11                ERR_get_error
                0x0000000040192f3c                ERR_clear_error
                0x0000000040192ff7                ERR_put_error
                0x00000000401930ff                ERR_get_next_error_library
                0x0000000040193114                ERR_set_error_data
                0x0000000040193191                ERR_add_error_data
                0x00000000401932ce                ERR_set_mark
                0x00000000401932f9                ERR_pop_to_mark
                0x00000000401933d0                ERR_load_crypto_strings
                0x000000004019346c                ASN1_TYPE_set_octetstring
                0x00000000401934e4                ASN1_TYPE_get_octetstring
                0x0000000040193540                ASN1_TYPE_set_int_octetstring
                0x000000004019366d                ASN1_TYPE_get_int_octetstring
                0x0000000040193860                EVP_CIPHER_CTX_init
                0x0000000040193875                EVP_CIPHER_CTX_new
                0x00000000401938ac                EVP_EncryptUpdate
                0x0000000040193a58                EVP_EncryptFinal_ex
                0x0000000040193b2c                EVP_EncryptFinal
                0x0000000040193b37                EVP_DecryptUpdate
                0x0000000040193c66                EVP_CipherUpdate
                0x0000000040193c81                EVP_DecryptFinal_ex
                0x0000000040193e1c                EVP_DecryptFinal
                0x0000000040193e27                EVP_CipherFinal
                0x0000000040193e47                EVP_CipherFinal_ex
                0x0000000040193e67                EVP_CIPHER_CTX_cleanup
                0x0000000040193ed2                EVP_CIPHER_CTX_free
                0x0000000040193ef7                EVP_CIPHER_CTX_set_padding
                0x0000000040193f18                EVP_CIPHER_CTX_ctrl
                0x0000000040193fa8                EVP_CIPHER_CTX_set_key_length
                0x0000000040194009                EVP_CipherInit_ex
                0x000000004019425a                EVP_DecryptInit_ex
                0x000000004019426b                EVP_EncryptInit_ex
                0x000000004019427c                EVP_CipherInit
                0x00000000401942e0                EVP_DecryptInit
                0x00000000401942f1                EVP_EncryptInit
                0x0000000040194302                EVP_CIPHER_CTX_rand_key
                0x0000000040194338                EVP_CIPHER_CTX_copy
                0x0000000040194418                ERR_load_EVP_strings
                0x0000000040194450                EVP_CIPHER_param_to_asn1
                0x000000004019446b                EVP_CIPHER_asn1_to_param
                0x0000000040194486                EVP_CIPHER_block_size
                0x000000004019448f                EVP_CIPHER_CTX_block_size
                0x000000004019449b                EVP_Cipher
                0x00000000401944a9                EVP_CIPHER_CTX_cipher
                0x00000000401944b2                EVP_CIPHER_flags
                0x00000000401944bc                EVP_CIPHER_CTX_flags
                0x00000000401944c9                EVP_CIPHER_CTX_get_app_data
                0x00000000401944d3                EVP_CIPHER_CTX_set_app_data
                0x00000000401944dd                EVP_CIPHER_iv_length
                0x00000000401944e6                EVP_CIPHER_CTX_iv_length
                0x00000000401944f2                EVP_CIPHER_set_asn1_iv
                0x0000000040194554                EVP_CIPHER_get_asn1_iv
                0x00000000401945ec                EVP_CIPHER_key_length
                0x00000000401945f5                EVP_CIPHER_CTX_key_length
                0x00000000401945fe                EVP_CIPHER_nid
                0x0000000040194606                EVP_CIPHER_type
                0x0000000040194745                EVP_CIPHER_CTX_nid
                0x0000000040194750                EVP_MD_block_size
                0x0000000040194759                EVP_MD_type
                0x0000000040194761                EVP_MD_pkey_type
                0x000000004019476a                EVP_MD_size
                0x000000004019479c                EVP_MD_flags
                0x00000000401947a6                EVP_MD_CTX_md
                0x00000000401947bb                EVP_MD_CTX_set_flags
                0x00000000401947c8                EVP_MD_CTX_clear_flags
                0x00000000401947d7                EVP_MD_CTX_test_flags
                0x00000000401947e2                EVP_CIPHER_CTX_set_flags
                0x00000000401947ef                EVP_CIPHER_CTX_clear_flags
                0x00000000401947fe                EVP_CIPHER_CTX_test_flags
                0x0000000040194c19                CRYPTO_get_ex_data_implementation
                0x0000000040194c35                CRYPTO_set_ex_data_implementation
                0x0000000040194c9e                CRYPTO_ex_data_new_class
                0x0000000040194cbc                CRYPTO_cleanup_all_ex_data
                0x0000000040194cdb                CRYPTO_get_ex_new_index
                0x0000000040194d4a                CRYPTO_new_ex_data
                0x0000000040194d97                CRYPTO_dup_ex_data
                0x0000000040194de4                CRYPTO_free_ex_data
                0x0000000040194e31                CRYPTO_set_ex_data
                0x0000000040194eea                CRYPTO_get_ex_data
                0x00000000401953e4                idea_encrypt
                0x0000000040195d28                idea_cbc_encrypt
                0x0000000040196350                idea_cfb64_encrypt
                0x0000000040196570                idea_options
                0x000000004019657b                idea_ecb_encrypt
                0x0000000040196634                idea_ofb64_encrypt
                0x000000004019686d                idea_set_encrypt_key
                0x00000000401969f6                idea_set_decrypt_key
                0x0000000040196bed                lh_strhash
                0x0000000040196c60                lh_new
                0x0000000040196dc1                lh_free
                0x0000000040196e2c                lh_insert
                0x0000000040196fb8                lh_delete
                0x00000000401970e4                lh_retrieve
                0x0000000040197127                lh_doall
                0x0000000040197145                lh_doall_arg
                0x0000000040197160                lh_num_items
                0x00000000401971a7                EVP_dss
                0x00000000401971e7                EVP_dss1
                0x0000000040197227                EVP_ecdsa
                0x0000000040197267                EVP_md4
                0x00000000401972a7                EVP_md5
                0x00000000401972e7                EVP_ripemd160
                0x0000000040197327                EVP_sha
                0x00000000401973eb                EVP_sha1
                0x00000000401973f6                EVP_sha224
                0x0000000040197401                EVP_sha256
                0x000000004019740c                EVP_sha384
                0x0000000040197417                EVP_sha512
                0x0000000040197424                MD4_Init
                0x0000000040197466                md4_block_data_order
                0x0000000040197a29                MD4_Final
                0x0000000040197af6                MD4_Transform
                0x0000000040197b06                MD4_Update
                0x0000000040197c48                MD5_Init
                0x0000000040197c8a                md5_block_data_order
                0x00000000401984ca                MD5_Final
                0x0000000040198597                MD5_Transform
                0x00000000401985a7                MD5_Update
                0x00000000401986e8                MD5
                0x0000000040198784                CRYPTO_set_mem_functions
                0x00000000401987f4                CRYPTO_set_mem_ex_functions
                0x0000000040198864                CRYPTO_set_locked_mem_functions
                0x00000000401988a4                CRYPTO_set_locked_mem_ex_functions
                0x00000000401988e4                CRYPTO_set_mem_debug_functions
                0x000000004019891d                CRYPTO_get_mem_functions
                0x0000000040198972                CRYPTO_get_mem_ex_functions
                0x00000000401989c3                CRYPTO_get_locked_mem_functions
                0x00000000401989f8                CRYPTO_get_locked_mem_ex_functions
                0x0000000040198a2b                CRYPTO_get_mem_debug_functions
                0x0000000040198a7c                CRYPTO_malloc_locked
                0x0000000040198b38                CRYPTO_free_locked
                0x0000000040198b7f                CRYPTO_malloc
                0x0000000040198c3b                CRYPTO_strdup
                0x0000000040198c8a                CRYPTO_realloc
                0x0000000040198d45                CRYPTO_realloc_clean
                0x0000000040198e20                CRYPTO_free
                0x0000000040198e67                CRYPTO_remalloc
                0x0000000040198e94                CRYPTO_set_mem_debug_options
                0x0000000040198ea8                CRYPTO_get_mem_debug_options
                0x0000000040198ec4                OPENSSL_cleanse
                0x000000004019933c                CRYPTO_mem_ctrl
                0x00000000401994c6                CRYPTO_is_mem_check_on
                0x0000000040199542                CRYPTO_dbg_set_options
                0x000000004019954f                CRYPTO_dbg_get_options
                0x000000004019955c                CRYPTO_push_info_
                0x000000004019963b                CRYPTO_pop_info
                0x000000004019967d                CRYPTO_remove_all_info
                0x00000000401996c0                CRYPTO_dbg_malloc
                0x000000004019985f                CRYPTO_dbg_free
                0x00000000401998d4                CRYPTO_dbg_realloc
                0x0000000040199974                CRYPTO_mem_leaks
                0x0000000040199a93                CRYPTO_mem_leaks_cb
                0x0000000040199b6e                EVP_add_cipher
                0x0000000040199bba                EVP_add_digest
                0x0000000040199c5b                EVP_get_cipherbyname
                0x0000000040199c6b                EVP_get_digestbyname
                0x0000000040199c7b                EVP_cleanup
                0x0000000040199cc1                EVP_CIPHER_do_all
                0x0000000040199ce6                EVP_CIPHER_do_all_sorted
                0x0000000040199d0b                EVP_MD_do_all
                0x0000000040199d30                EVP_MD_do_all_sorted
                0x0000000040199e64                OBJ_NAME_init
                0x0000000040199eb1                OBJ_NAME_new_index
                0x000000004019a019                OBJ_NAME_get
                0x000000004019a0bc                OBJ_NAME_add
                0x000000004019a1a3                OBJ_NAME_remove
                0x000000004019a24e                OBJ_NAME_do_all
                0x000000004019a278                OBJ_NAME_do_all_sorted
                0x000000004019a31b                OBJ_NAME_cleanup
                0x000000004019a5ea                check_defer
                0x000000004019a60b                OBJ_cleanup
                0x000000004019a67d                OBJ_new_nid
                0x000000004019a691                OBJ_add_object
                0x000000004019a843                OBJ_nid2obj
                0x000000004019a8ff                OBJ_nid2sn
                0x000000004019a9be                OBJ_nid2ln
                0x000000004019aa7e                OBJ_bsearch_ex_
                0x000000004019ab77                OBJ_bsearch_
                0x000000004019ab88                OBJ_sn2nid
                0x000000004019ac04                OBJ_ln2nid
                0x000000004019ac80                OBJ_txt2obj
                0x000000004019ad88                OBJ_obj2nid
                0x000000004019ae10                OBJ_txt2nid
                0x000000004019ae4d                OBJ_obj2txt
                0x000000004019b1a0                OBJ_create
                0x000000004019b2a5                OBJ_create_objects
                0x000000004019b3f8                ERR_load_OBJ_strings
                0x000000004019b430                OBJ_dup
                0x000000004019b60a                OBJ_cmp
                0x000000004019b628                ERR_load_OCSP_strings
                0x000000004019b660                DES_ede3_ofb64_encrypt
                0x000000004019b830                DES_ofb64_encrypt
                0x000000004019bb51                EVP_PKEY_bits
                0x000000004019bb75                EVP_PKEY_size
                0x000000004019bb99                EVP_PKEY_save_parameters
                0x000000004019bbcb                EVP_PKEY_missing_parameters
                0x000000004019bbea                EVP_PKEY_copy_parameters
                0x000000004019bc8a                EVP_PKEY_cmp_parameters
                0x000000004019bcc0                EVP_PKEY_cmp
                0x000000004019bd1b                EVP_PKEY_new
                0x000000004019bda6                EVP_PKEY_set_type
                0x000000004019bdbb                EVP_PKEY_set_type_str
                0x000000004019bdd0                EVP_PKEY_assign
                0x000000004019be0d                EVP_PKEY_get0
                0x000000004019be17                EVP_PKEY_set1_RSA
                0x000000004019be51                EVP_PKEY_get1_RSA
                0x000000004019be9c                EVP_PKEY_set1_DSA
                0x000000004019bed6                EVP_PKEY_get1_DSA
                0x000000004019bf21                EVP_PKEY_set1_EC_KEY
                0x000000004019bf5b                EVP_PKEY_get1_EC_KEY
                0x000000004019bfa9                EVP_PKEY_set1_DH
                0x000000004019bfe3                EVP_PKEY_get1_DH
                0x000000004019c02e                EVP_PKEY_type
                0x000000004019c051                EVP_PKEY_id
                0x000000004019c059                EVP_PKEY_base_id
                0x000000004019c066                EVP_PKEY_free
                0x000000004019c0c3                EVP_PKEY_print_public
                0x000000004019c0e9                EVP_PKEY_print_private
                0x000000004019c111                EVP_PKEY_print_params
                0x000000004019c13a                EVP_PKEY_get_default_digest_nid
                0x000000004019c174                PEM_read_bio_X509_REQ
                0x000000004019c195                PEM_write_bio_X509_REQ
                0x000000004019c1d9                PEM_write_bio_X509_REQ_NEW
                0x000000004019c21d                PEM_read_bio_X509_CRL
                0x000000004019c23e                PEM_write_bio_X509_CRL
                0x000000004019c282                PEM_read_bio_PKCS7
                0x000000004019c2a3                PEM_write_bio_PKCS7
                0x000000004019c2e7                PEM_read_bio_NETSCAPE_CERT_SEQUENCE
                0x000000004019c308                PEM_write_bio_NETSCAPE_CERT_SEQUENCE
                0x000000004019c34c                PEM_read_bio_RSAPrivateKey
                0x000000004019c3b5                PEM_write_bio_RSAPrivateKey
                0x000000004019c3ec                PEM_read_bio_RSAPublicKey
                0x000000004019c40d                PEM_write_bio_RSAPublicKey
                0x000000004019c451                PEM_read_bio_RSA_PUBKEY
                0x000000004019c472                PEM_write_bio_RSA_PUBKEY
                0x000000004019c4b6                PEM_read_bio_DSAPrivateKey
                0x000000004019c51f                PEM_write_bio_DSAPrivateKey
                0x000000004019c556                PEM_read_bio_DSA_PUBKEY
                0x000000004019c577                PEM_write_bio_DSA_PUBKEY
                0x000000004019c5bb                PEM_read_bio_DSAparams
                0x000000004019c5dc                PEM_write_bio_DSAparams
                0x000000004019c620                PEM_read_bio_ECPrivateKey
                0x000000004019c689                PEM_read_bio_ECPKParameters
                0x000000004019c6aa                PEM_write_bio_ECPKParameters
                0x000000004019c6ee                PEM_write_bio_ECPrivateKey
                0x000000004019c725                PEM_read_bio_EC_PUBKEY
                0x000000004019c746                PEM_write_bio_EC_PUBKEY
                0x000000004019c78a                PEM_read_bio_DHparams
                0x000000004019c7ab                PEM_write_bio_DHparams
                0x000000004019c7ef                PEM_read_bio_PUBKEY
                0x000000004019c810                PEM_write_bio_PUBKEY
                0x000000004019c854                ERR_load_PEM_strings
                0x000000004019c890                PEM_def_callback
                0x000000004019c8ba                PEM_proc_type
                0x000000004019c922                PEM_dek_info
                0x000000004019c9e1                PEM_do_header
                0x000000004019cbba                PEM_get_EVP_CIPHER_INFO
                0x000000004019ce59                PEM_write_bio
                0x000000004019d128                PEM_ASN1_write_bio
                0x000000004019d543                PEM_read_bio
                0x000000004019dc2c                pem_check_suffix
                0x000000004019dca1                PEM_bytes_read_bio
                0x000000004019dfec                PEM_ASN1_read_bio
                0x000000004019e098                PEM_read_bio_PrivateKey
                0x000000004019e2f4                PEM_write_bio_PrivateKey
                0x000000004019e3c0                PEM_read_bio_Parameters
                0x000000004019e4e2                PEM_write_bio_Parameters
                0x000000004019e564                PEM_read_bio_X509
                0x000000004019e585                PEM_write_bio_X509
                0x000000004019e5cc                ERR_load_PKCS12_strings
                0x000000004019e6da                d2i_PKCS7
                0x000000004019e6ea                i2d_PKCS7
                0x000000004019e6fa                PKCS7_new
                0x000000004019e70a                PKCS7_free
                0x000000004019e71a                i2d_PKCS7_NDEF
                0x000000004019e72a                PKCS7_dup
                0x000000004019e73d                d2i_PKCS7_SIGNED
                0x000000004019e74d                i2d_PKCS7_SIGNED
                0x000000004019e75d                PKCS7_SIGNED_new
                0x000000004019e76d                PKCS7_SIGNED_free
                0x000000004019e77d                d2i_PKCS7_SIGNER_INFO
                0x000000004019e78d                i2d_PKCS7_SIGNER_INFO
                0x000000004019e79d                PKCS7_SIGNER_INFO_new
                0x000000004019e7ad                PKCS7_SIGNER_INFO_free
                0x000000004019e7bd                d2i_PKCS7_ISSUER_AND_SERIAL
                0x000000004019e7cd                i2d_PKCS7_ISSUER_AND_SERIAL
                0x000000004019e7dd                PKCS7_ISSUER_AND_SERIAL_new
                0x000000004019e7ed                PKCS7_ISSUER_AND_SERIAL_free
                0x000000004019e7fd                d2i_PKCS7_ENVELOPE
                0x000000004019e80d                i2d_PKCS7_ENVELOPE
                0x000000004019e81d                PKCS7_ENVELOPE_new
                0x000000004019e82d                PKCS7_ENVELOPE_free
                0x000000004019e83d                d2i_PKCS7_RECIP_INFO
                0x000000004019e84d                i2d_PKCS7_RECIP_INFO
                0x000000004019e85d                PKCS7_RECIP_INFO_new
                0x000000004019e86d                PKCS7_RECIP_INFO_free
                0x000000004019e87d                d2i_PKCS7_ENC_CONTENT
                0x000000004019e88d                i2d_PKCS7_ENC_CONTENT
                0x000000004019e89d                PKCS7_ENC_CONTENT_new
                0x000000004019e8ad                PKCS7_ENC_CONTENT_free
                0x000000004019e8bd                d2i_PKCS7_SIGN_ENVELOPE
                0x000000004019e8cd                i2d_PKCS7_SIGN_ENVELOPE
                0x000000004019e8dd                PKCS7_SIGN_ENVELOPE_new
                0x000000004019e8ed                PKCS7_SIGN_ENVELOPE_free
                0x000000004019e8fd                d2i_PKCS7_ENCRYPT
                0x000000004019e90d                i2d_PKCS7_ENCRYPT
                0x000000004019e91d                PKCS7_ENCRYPT_new
                0x000000004019e92d                PKCS7_ENCRYPT_free
                0x000000004019e93d                d2i_PKCS7_DIGEST
                0x000000004019e94d                i2d_PKCS7_DIGEST
                0x000000004019e95d                PKCS7_DIGEST_new
                0x000000004019e96d                PKCS7_DIGEST_free
                0x000000004019e97d                PKCS7_print_ctx
                0x000000004019eef9                PKCS7_dataInit
                0x000000004019f5ce                PKCS7_dataDecode
                0x000000004019fc75                PKCS7_SIGNER_INFO_sign
                0x000000004019fe3e                PKCS7_get_issuer_and_serial
                0x000000004019fead                PKCS7_get_signed_attribute
                0x000000004019febc                PKCS7_dataFinal
                0x00000000401a046e                PKCS7_get_attribute
                0x00000000401a047d                PKCS7_digest_from_attributes
                0x00000000401a049d                PKCS7_signatureVerify
                0x00000000401a07a4                PKCS7_dataVerify
                0x00000000401a0922                PKCS7_set_signed_attributes
                0x00000000401a09b5                PKCS7_set_attributes
                0x00000000401a0a48                PKCS7_add_signed_attribute
                0x00000000401a0a57                PKCS7_add_attribute
                0x00000000401a0a70                PKCS7_ctrl
                0x00000000401a0bac                PKCS7_set_content
                0x00000000401a0c3d                PKCS7_set_type
                0x00000000401a0e4e                PKCS7_content_new
                0x00000000401a0eba                PKCS7_set0_type_other
                0x00000000401a0eee                PKCS7_add_signer
                0x00000000401a104b                PKCS7_add_certificate
                0x00000000401a112c                PKCS7_add_crl
                0x00000000401a120c                PKCS7_SIGNER_INFO_set
                0x00000000401a137c                PKCS7_add_signature
                0x00000000401a1450                PKCS7_set_digest
                0x00000000401a151c                PKCS7_get_signer_info
                0x00000000401a1565                PKCS7_SIGNER_INFO_get0_algs
                0x00000000401a158f                PKCS7_RECIP_INFO_get0_alg
                0x00000000401a15a1                PKCS7_add_recipient_info
                0x00000000401a1610                PKCS7_RECIP_INFO_set
                0x00000000401a179b                PKCS7_add_recipient
                0x00000000401a1800                PKCS7_cert_from_signer_info
                0x00000000401a1852                PKCS7_set_cipher
                0x00000000401a18ec                PKCS7_stream
                0x00000000401a19b8                ERR_load_PKCS7_strings
                0x00000000401a19f0                ERR_load_RAND_strings
                0x00000000401a1a28                DES_random_key
                0x00000000401a1a70                RAND_set_rand_method
                0x00000000401a1a82                RAND_get_rand_method
                0x00000000401a1aa5                RAND_cleanup
                0x00000000401a1aca                RAND_seed
                0x00000000401a1b02                RAND_add
                0x00000000401a1b4b                RAND_bytes
                0x00000000401a1b92                RAND_pseudo_bytes
                0x00000000401a1bd9                RAND_status
                0x00000000401a1bfc                RC2_encrypt
                0x00000000401a1d5a                RC2_decrypt
                0x00000000401a1ec0                RC2_cbc_encrypt
                0x00000000401a24e8                RC2_ecb_encrypt
                0x00000000401a25b0                RC2_set_key
                0x00000000401a26e0                RC2_cfb64_encrypt
                0x00000000401a28f4                RC2_ofb64_encrypt
                0x00000000401a2aa8                RC4
                0x00000000401a2f44                RC4_options
                0x00000000401a2f4f                RC4_set_key
                0x00000000401a3054                RIPEMD160_Init
                0x00000000401a309d                ripemd160_block_data_order
                0x00000000401a46f2                RIPEMD160_Final
                0x00000000401a47c7                RIPEMD160_Transform
                0x00000000401a47d7                RIPEMD160_Update
                0x00000000401a4962                d2i_RSAPrivateKey
                0x00000000401a4972                i2d_RSAPrivateKey
                0x00000000401a4982                d2i_RSAPublicKey
                0x00000000401a4992                i2d_RSAPublicKey
                0x00000000401a49a2                RSAPublicKey_dup
                0x00000000401a49b5                RSAPrivateKey_dup
                0x00000000401a49d0                RSA_generate_key
                0x00000000401a4a90                ERR_load_RSA_strings
                0x00000000401a4ad0                RSA_generate_key_ex
                0x00000000401a50a0                RSA_set_default_method
                0x00000000401a50ad                RSA_get_default_method
                0x00000000401a50d0                RSA_get_method
                0x00000000401a50da                RSA_set_method
                0x00000000401a5121                RSA_new_method
                0x00000000401a526d                RSA_new
                0x00000000401a527d                RSA_free
                0x00000000401a538d                RSA_up_ref
                0x00000000401a53ba                RSA_get_ex_new_index
                0x00000000401a53d9                RSA_set_ex_data
                0x00000000401a53e8                RSA_get_ex_data
                0x00000000401a53f7                RSA_size
                0x00000000401a5412                RSA_public_encrypt
                0x00000000401a541f                RSA_private_encrypt
                0x00000000401a542c                RSA_private_decrypt
                0x00000000401a5439                RSA_public_decrypt
                0x00000000401a5446                RSA_flags
                0x00000000401a545d                RSA_blinding_off
                0x00000000401a5497                RSA_setup_blinding
                0x00000000401a5740                RSA_blinding_on
                0x00000000401a579e                RSA_memory_lock
                0x00000000401a58f0                RSA_sign
                0x00000000401a5b55                int_rsa_verify
                0x00000000401a5eef                RSA_verify
                0x00000000401a5f30                DES_set_odd_parity
                0x00000000401a5f53                DES_check_key_parity
                0x00000000401a5f94                DES_is_weak_key
                0x00000000401a5fe3                DES_set_key_unchecked
                0x00000000401a6287                DES_set_key_checked
                0x00000000401a62d8                DES_set_key
                0x00000000401a62fc                DES_key_sched
                0x00000000401a6308                SHA1
                0x00000000401a74bb                SHA1_Update
                0x00000000401a75fa                SHA1_Transform
                0x00000000401a760a                SHA1_Final
                0x00000000401a76ed                SHA1_Init
                0x00000000401a8f50                SHA224_Init
                0x00000000401a8fb5                SHA256_Init
                0x00000000401a901a                SHA256_Update
                0x00000000401a9159                SHA224_Update
                0x00000000401a9164                SHA256_Transform
                0x00000000401a9174                SHA256_Final
                0x00000000401a929e                SHA224_Final
                0x00000000401a92a9                SHA256
                0x00000000401a9324                SHA224
                0x00000000401aab95                SHA384_Init
                0x00000000401aac33                SHA512_Init
                0x00000000401aacd1                SHA512_Final
                0x00000000401aaf36                SHA384_Final
                0x00000000401aaf41                SHA512_Update
                0x00000000401ab051                SHA384_Update
                0x00000000401ab05c                SHA512_Transform
                0x00000000401ab06c                SHA384
                0x00000000401ab0e7                SHA512
                0x00000000401ac137                SHA_Update
                0x00000000401ac276                SHA_Transform
                0x00000000401ac286                SHA_Final
                0x00000000401ac369                SHA_Init
                0x00000000401ac3c0                sk_set_cmp_func
                0x00000000401ac3da                sk_new
                0x00000000401ac477                sk_new_null
                0x00000000401ac487                sk_insert
                0x00000000401ac542                sk_delete
                0x00000000401ac59e                sk_delete_ptr
                0x00000000401ac5e4                sk_push
                0x00000000401ac5f1                sk_unshift
                0x00000000401ac601                sk_shift
                0x00000000401ac627                sk_pop
                0x00000000401ac64c                sk_zero
                0x00000000401ac681                sk_free
                0x00000000401ac6af                sk_pop_free
                0x00000000401ac701                sk_dup
                0x00000000401ac787                sk_num
                0x00000000401ac79b                sk_value
                0x00000000401ac7ca                sk_set
                0x00000000401ac7fe                sk_sort
                0x00000000401ac8dc                sk_find_ex
                0x00000000401ac8ec                sk_find
                0x00000000401ac8fc                sk_is_sorted
                0x00000000401acda2                ASN1_tag2bit
                0x00000000401acdbd                asn1_ex_c2i
                0x00000000401ad60d                ASN1_item_ex_d2i
                0x00000000401ae4ea                ASN1_template_d2i
                0x00000000401ae507                ASN1_item_d2i
                0x00000000401ae5b1                asn1_ex_i2c
                0x00000000401ae87a                ASN1_item_ex_i2d
                0x00000000401af0d9                ASN1_template_i2d
                0x00000000401af1b5                ASN1_item_i2d
                0x00000000401af1c5                ASN1_item_ndef_i2d
                0x00000000401af1e0                ASN1_primitive_free
                0x00000000401af506                ASN1_template_free
                0x00000000401af58a                ASN1_item_ex_free
                0x00000000401af59a                ASN1_item_free
                0x00000000401af682                ASN1_primitive_new
                0x00000000401afaac                ASN1_template_new
                0x00000000401afb39                ASN1_item_ex_new
                0x00000000401afb49                ASN1_item_new
                0x00000000401afb78                d2i_ASN1_INTEGER
                0x00000000401afb88                i2d_ASN1_INTEGER
                0x00000000401afb98                ASN1_INTEGER_new
                0x00000000401afba8                ASN1_INTEGER_free
                0x00000000401afbb8                d2i_ASN1_ENUMERATED
                0x00000000401afbc8                i2d_ASN1_ENUMERATED
                0x00000000401afbd8                ASN1_ENUMERATED_new
                0x00000000401afbe8                ASN1_ENUMERATED_free
                0x00000000401afbf8                d2i_ASN1_BIT_STRING
                0x00000000401afc08                i2d_ASN1_BIT_STRING
                0x00000000401afc18                ASN1_BIT_STRING_new
                0x00000000401afc28                ASN1_BIT_STRING_free
                0x00000000401afc38                d2i_ASN1_OCTET_STRING
                0x00000000401afc48                i2d_ASN1_OCTET_STRING
                0x00000000401afc58                ASN1_OCTET_STRING_new
                0x00000000401afc68                ASN1_OCTET_STRING_free
                0x00000000401afc78                d2i_ASN1_NULL
                0x00000000401afc88                i2d_ASN1_NULL
                0x00000000401afc98                ASN1_NULL_new
                0x00000000401afca8                ASN1_NULL_free
                0x00000000401afcb8                d2i_ASN1_UTF8STRING
                0x00000000401afcc8                i2d_ASN1_UTF8STRING
                0x00000000401afcd8                ASN1_UTF8STRING_new
                0x00000000401afce8                ASN1_UTF8STRING_free
                0x00000000401afcf8                d2i_ASN1_PRINTABLESTRING
                0x00000000401afd08                i2d_ASN1_PRINTABLESTRING
                0x00000000401afd18                ASN1_PRINTABLESTRING_new
                0x00000000401afd28                ASN1_PRINTABLESTRING_free
                0x00000000401afd38                d2i_ASN1_T61STRING
                0x00000000401afd48                i2d_ASN1_T61STRING
                0x00000000401afd58                ASN1_T61STRING_new
                0x00000000401afd68                ASN1_T61STRING_free
                0x00000000401afd78                d2i_ASN1_IA5STRING
                0x00000000401afd88                i2d_ASN1_IA5STRING
                0x00000000401afd98                ASN1_IA5STRING_new
                0x00000000401afda8                ASN1_IA5STRING_free
                0x00000000401afdb8                d2i_ASN1_GENERALSTRING
                0x00000000401afdc8                i2d_ASN1_GENERALSTRING
                0x00000000401afdd8                ASN1_GENERALSTRING_new
                0x00000000401afde8                ASN1_GENERALSTRING_free
                0x00000000401afdf8                d2i_ASN1_UTCTIME
                0x00000000401afe08                i2d_ASN1_UTCTIME
                0x00000000401afe18                ASN1_UTCTIME_new
                0x00000000401afe28                ASN1_UTCTIME_free
                0x00000000401afe38                d2i_ASN1_GENERALIZEDTIME
                0x00000000401afe48                i2d_ASN1_GENERALIZEDTIME
                0x00000000401afe58                ASN1_GENERALIZEDTIME_new
                0x00000000401afe68                ASN1_GENERALIZEDTIME_free
                0x00000000401afe78                d2i_ASN1_VISIBLESTRING
                0x00000000401afe88                i2d_ASN1_VISIBLESTRING
                0x00000000401afe98                ASN1_VISIBLESTRING_new
                0x00000000401afea8                ASN1_VISIBLESTRING_free
                0x00000000401afeb8                d2i_ASN1_UNIVERSALSTRING
                0x00000000401afec8                i2d_ASN1_UNIVERSALSTRING
                0x00000000401afed8                ASN1_UNIVERSALSTRING_new
                0x00000000401afee8                ASN1_UNIVERSALSTRING_free
                0x00000000401afef8                d2i_ASN1_BMPSTRING
                0x00000000401aff08                i2d_ASN1_BMPSTRING
                0x00000000401aff18                ASN1_BMPSTRING_new
                0x00000000401aff28                ASN1_BMPSTRING_free
                0x00000000401aff38                d2i_ASN1_TYPE
                0x00000000401aff48                i2d_ASN1_TYPE
                0x00000000401aff58                ASN1_TYPE_new
                0x00000000401aff68                ASN1_TYPE_free
                0x00000000401aff78                d2i_ASN1_PRINTABLE
                0x00000000401aff88                i2d_ASN1_PRINTABLE
                0x00000000401aff98                ASN1_PRINTABLE_new
                0x00000000401affa8                ASN1_PRINTABLE_free
                0x00000000401affb8                d2i_DISPLAYTEXT
                0x00000000401affc8                i2d_DISPLAYTEXT
                0x00000000401affd8                DISPLAYTEXT_new
                0x00000000401affe8                DISPLAYTEXT_free
                0x00000000401afff8                d2i_DIRECTORYSTRING
                0x00000000401b0008                i2d_DIRECTORYSTRING
                0x00000000401b0018                DIRECTORYSTRING_new
                0x00000000401b0028                DIRECTORYSTRING_free
                0x00000000401b0038                d2i_ASN1_SEQUENCE_ANY
                0x00000000401b0048                i2d_ASN1_SEQUENCE_ANY
                0x00000000401b0058                d2i_ASN1_SET_ANY
                0x00000000401b0068                i2d_ASN1_SET_ANY
                0x00000000401b00c3                asn1_get_choice_selector
                0x00000000401b00d3                asn1_set_choice_selector
                0x00000000401b00e7                asn1_do_lock
                0x00000000401b0141                asn1_enc_init
                0x00000000401b0167                asn1_enc_free
                0x00000000401b01a7                asn1_enc_save
                0x00000000401b0231                asn1_enc_restore
                0x00000000401b02ab                asn1_get_field_ptr
                0x00000000401b02c3                asn1_do_adb
                0x00000000401b0380                ERR_load_UI_strings
                0x00000000401b03b8                ERR_load_X509V3_strings
                0x00000000401b03f0                X509_issuer_and_serial_hash
                0x00000000401b04bf                X509_CRL_match
                0x00000000401b04d7                X509_get_issuer_name
                0x00000000401b04e4                X509_get_subject_name
                0x00000000401b04f1                X509_get_serialNumber
                0x00000000401b04fe                X509_cmp
                0x00000000401b0558                X509_NAME_cmp
                0x00000000401b05d1                X509_CRL_cmp
                0x00000000401b05ea                X509_subject_name_cmp
                0x00000000401b0603                X509_issuer_name_cmp
                0x00000000401b061c                X509_issuer_and_serial_cmp
                0x00000000401b065c                X509_NAME_hash
                0x00000000401b06c2                X509_subject_name_hash
                0x00000000401b06d4                X509_issuer_name_hash
                0x00000000401b06e6                X509_NAME_hash_old
                0x00000000401b074f                X509_subject_name_hash_old
                0x00000000401b0761                X509_issuer_name_hash_old
                0x00000000401b0773                X509_find_by_issuer_and_serial
                0x00000000401b07f6                X509_find_by_subject
                0x00000000401b0853                X509_get_pubkey
                0x00000000401b087b                X509_get0_pubkey_bitstr
                0x00000000401b0898                X509_check_private_key
                0x00000000401b0954                ERR_load_X509_strings
                0x00000000401b098c                X509_NAME_oneline
                0x00000000401b11ca                X509_time_adj_ex
                0x00000000401b1217                X509_time_adj
                0x00000000401b122d                X509_gmtime_adj
                0x00000000401b123d                X509_cmp_time
                0x00000000401b2302                X509_cmp_current_time
                0x00000000401b2312                X509_get_pubkey_parameters
                0x00000000401b243e                X509_verify_cert
                0x00000000401b2dd1                X509_STORE_CTX_get_ex_new_index
                0x00000000401b2df0                X509_STORE_CTX_set_ex_data
                0x00000000401b2e02                X509_STORE_CTX_get_ex_data
                0x00000000401b2e14                X509_STORE_CTX_get_error
                0x00000000401b2e20                X509_STORE_CTX_set_error
                0x00000000401b2e2c                X509_STORE_CTX_get_error_depth
                0x00000000401b2e38                X509_STORE_CTX_get_current_cert
                0x00000000401b2e45                X509_STORE_CTX_get_chain
                0x00000000401b2e52                X509_STORE_CTX_get1_chain
                0x00000000401b2ebe                X509_STORE_CTX_get0_current_issuer
                0x00000000401b2ecb                X509_STORE_CTX_get0_current_crl
                0x00000000401b2ed8                X509_STORE_CTX_get0_parent_ctx
                0x00000000401b2ee5                X509_STORE_CTX_set_cert
                0x00000000401b2eef                X509_STORE_CTX_set_chain
                0x00000000401b2ef9                X509_STORE_CTX_set0_crls
                0x00000000401b2f03                X509_STORE_CTX_purpose_inherit
                0x00000000401b3030                X509_STORE_CTX_set_trust
                0x00000000401b3047                X509_STORE_CTX_set_purpose
                0x00000000401b305e                X509_STORE_CTX_new
                0x00000000401b30c0                X509_STORE_CTX_init
                0x00000000401b341f                X509_STORE_CTX_trusted_stack
                0x00000000401b3431                X509_STORE_CTX_cleanup
                0x00000000401b34d4                X509_STORE_CTX_free
                0x00000000401b34f4                X509_STORE_CTX_set_depth
                0x00000000401b3503                X509_STORE_CTX_set_flags
                0x00000000401b3512                X509_STORE_CTX_set_time
                0x00000000401b3523                X509_STORE_CTX_set_verify_cb
                0x00000000401b352d                X509_STORE_CTX_get0_policy_tree
                0x00000000401b353a                X509_STORE_CTX_get_explicit_policy
                0x00000000401b3546                X509_STORE_CTX_set_default
                0x00000000401b3577                X509_STORE_CTX_get0_param
                0x00000000401b3581                X509_STORE_CTX_set0_param
                0x00000000401b3977                X509_VERIFY_PARAM_free
                0x00000000401b3997                X509_VERIFY_PARAM_new
                0x00000000401b39db                X509_VERIFY_PARAM_set1_name
                0x00000000401b3a1c                X509_VERIFY_PARAM_set_flags
                0x00000000401b3a40                X509_VERIFY_PARAM_clear_flags
                0x00000000401b3a52                X509_VERIFY_PARAM_get_flags
                0x00000000401b3a5c                X509_VERIFY_PARAM_set_purpose
                0x00000000401b3a6b                X509_VERIFY_PARAM_set_trust
                0x00000000401b3a7a                X509_VERIFY_PARAM_set_depth
                0x00000000401b3a83                X509_VERIFY_PARAM_set_time
                0x00000000401b3a91                X509_VERIFY_PARAM_add0_policy
                0x00000000401b3ae2                X509_VERIFY_PARAM_set1_policies
                0x00000000401b3ba9                X509_VERIFY_PARAM_inherit
                0x00000000401b3cbf                X509_VERIFY_PARAM_set1
                0x00000000401b3cf4                X509_VERIFY_PARAM_get_depth
                0x00000000401b3cfd                X509_VERIFY_PARAM_add0_table
                0x00000000401b3d84                X509_VERIFY_PARAM_lookup
                0x00000000401b3dda                X509_VERIFY_PARAM_table_cleanup
                0x00000000401b3e04                d2i_X509_ALGOR
                0x00000000401b3e14                i2d_X509_ALGOR
                0x00000000401b3e24                X509_ALGOR_new
                0x00000000401b3e34                X509_ALGOR_free
                0x00000000401b3e44                d2i_X509_ALGORS
                0x00000000401b3e54                i2d_X509_ALGORS
                0x00000000401b3e64                X509_ALGOR_dup
                0x00000000401b3e77                X509_ALGOR_set0
                0x00000000401b3f29                X509_ALGOR_get0
                0x00000000401b3f64                X509_verify
                0x00000000401b3f85                X509_REQ_verify
                0x00000000401b3fa6                NETSCAPE_SPKI_verify
                0x00000000401b3fc7                X509_sign
                0x00000000401b4001                X509_REQ_sign
                0x00000000401b402f                X509_CRL_sign
                0x00000000401b4069                NETSCAPE_SPKI_sign
                0x00000000401b4097                d2i_X509_bio
                0x00000000401b40ad                i2d_X509_bio
                0x00000000401b40c3                d2i_X509_CRL_bio
                0x00000000401b40d9                i2d_X509_CRL_bio
                0x00000000401b40ef                d2i_PKCS7_bio
                0x00000000401b4105                i2d_PKCS7_bio
                0x00000000401b411b                d2i_X509_REQ_bio
                0x00000000401b4131                i2d_X509_REQ_bio
                0x00000000401b4147                d2i_RSAPrivateKey_bio
                0x00000000401b415d                i2d_RSAPrivateKey_bio
                0x00000000401b4173                d2i_RSAPublicKey_bio
                0x00000000401b4189                d2i_RSA_PUBKEY_bio
                0x00000000401b41a4                i2d_RSAPublicKey_bio
                0x00000000401b41ba                i2d_RSA_PUBKEY_bio
                0x00000000401b41d0                d2i_DSAPrivateKey_bio
                0x00000000401b41eb                i2d_DSAPrivateKey_bio
                0x00000000401b4201                d2i_DSA_PUBKEY_bio
                0x00000000401b421c                i2d_DSA_PUBKEY_bio
                0x00000000401b4232                d2i_EC_PUBKEY_bio
                0x00000000401b424d                i2d_EC_PUBKEY_bio
                0x00000000401b4263                d2i_ECPrivateKey_bio
                0x00000000401b427e                i2d_ECPrivateKey_bio
                0x00000000401b4294                X509_pubkey_digest
                0x00000000401b42ec                X509_digest
                0x00000000401b4305                X509_CRL_digest
                0x00000000401b431e                X509_REQ_digest
                0x00000000401b4337                X509_NAME_digest
                0x00000000401b4350                PKCS7_ISSUER_AND_SERIAL_digest
                0x00000000401b4369                d2i_PKCS8_bio
                0x00000000401b4384                i2d_PKCS8_bio
                0x00000000401b439a                d2i_PKCS8_PRIV_KEY_INFO_bio
                0x00000000401b43b5                i2d_PKCS8_PRIV_KEY_INFO_bio
                0x00000000401b43cb                i2d_PKCS8PrivateKeyInfo_bio
                0x00000000401b441f                i2d_PrivateKey_bio
                0x00000000401b4435                d2i_PrivateKey_bio
                0x00000000401b4450                i2d_PUBKEY_bio
                0x00000000401b4466                d2i_PUBKEY_bio
                0x00000000401b4484                d2i_X509_ATTRIBUTE
                0x00000000401b4494                i2d_X509_ATTRIBUTE
                0x00000000401b44a4                X509_ATTRIBUTE_new
                0x00000000401b44b4                X509_ATTRIBUTE_free
                0x00000000401b44c4                X509_ATTRIBUTE_dup
                0x00000000401b44d7                X509_ATTRIBUTE_create
                0x00000000401b4d0e                d2i_X509_REVOKED
                0x00000000401b4d1e                i2d_X509_REVOKED
                0x00000000401b4d2e                X509_REVOKED_new
                0x00000000401b4d3e                X509_REVOKED_free
                0x00000000401b4d4e                d2i_X509_CRL_INFO
                0x00000000401b4d5e                i2d_X509_CRL_INFO
                0x00000000401b4d6e                X509_CRL_INFO_new
                0x00000000401b4d7e                X509_CRL_INFO_free
                0x00000000401b4d8e                d2i_X509_CRL
                0x00000000401b4d9e                i2d_X509_CRL
                0x00000000401b4dae                X509_CRL_new
                0x00000000401b4dbe                X509_CRL_free
                0x00000000401b4dce                X509_CRL_dup
                0x00000000401b4de1                X509_CRL_add0_revoked
                0x00000000401b4e62                X509_CRL_verify
                0x00000000401b4e7c                X509_CRL_get0_by_serial
                0x00000000401b4e9c                X509_CRL_get0_by_cert
                0x00000000401b4f0b                X509_CRL_set_default_method
                0x00000000401b4f24                X509_CRL_METHOD_new
                0x00000000401b4f89                X509_CRL_METHOD_free
                0x00000000401b4f99                X509_CRL_set_meth_data
                0x00000000401b4fa3                X509_CRL_get_meth_data
                0x00000000401b4fb0                d2i_X509_EXTENSION
                0x00000000401b4fc0                i2d_X509_EXTENSION
                0x00000000401b4fd0                X509_EXTENSION_new
                0x00000000401b4fe0                X509_EXTENSION_free
                0x00000000401b4ff0                d2i_X509_EXTENSIONS
                0x00000000401b5000                i2d_X509_EXTENSIONS
                0x00000000401b5010                X509_EXTENSION_dup
                0x00000000401b53ad                X509_NAME_ENTRY_free
                0x00000000401b53bd                d2i_X509_NAME_ENTRY
                0x00000000401b53cd                i2d_X509_NAME_ENTRY
                0x00000000401b53dd                X509_NAME_ENTRY_new
                0x00000000401b590c                X509_NAME_ENTRY_dup
                0x00000000401b591f                d2i_X509_NAME
                0x00000000401b592f                i2d_X509_NAME
                0x00000000401b593f                X509_NAME_new
                0x00000000401b594f                X509_NAME_free
                0x00000000401b5b01                X509_NAME_dup
                0x00000000401b5b14                X509_NAME_set
                0x00000000401b5b8c                d2i_X509_PUBKEY
                0x00000000401b5b9c                i2d_X509_PUBKEY
                0x00000000401b5bac                X509_PUBKEY_new
                0x00000000401b5bbc                X509_PUBKEY_free
                0x00000000401b5bcc                X509_PUBKEY_set
                0x00000000401b5cbd                X509_PUBKEY_get
                0x00000000401b5e1c                d2i_PUBKEY
                0x00000000401b5e85                i2d_PUBKEY
                0x00000000401b5edd                d2i_RSA_PUBKEY
                0x00000000401b5f62                i2d_RSA_PUBKEY
                0x00000000401b5fef                d2i_DSA_PUBKEY
                0x00000000401b6074                i2d_DSA_PUBKEY
                0x00000000401b6101                d2i_EC_PUBKEY
                0x00000000401b6186                i2d_EC_PUBKEY
                0x00000000401b6213                X509_PUBKEY_set0_param
                0x00000000401b6290                X509_PUBKEY_get0_param
                0x00000000401b62fb                d2i_X509_REQ_INFO
                0x00000000401b630b                i2d_X509_REQ_INFO
                0x00000000401b631b                X509_REQ_INFO_new
                0x00000000401b632b                X509_REQ_INFO_free
                0x00000000401b633b                d2i_X509_REQ
                0x00000000401b634b                i2d_X509_REQ
                0x00000000401b635b                X509_REQ_new
                0x00000000401b636b                X509_REQ_free
                0x00000000401b637b                X509_REQ_dup
                0x00000000401b6390                d2i_X509_SIG
                0x00000000401b63a0                i2d_X509_SIG
                0x00000000401b63b0                X509_SIG_new
                0x00000000401b63c0                X509_SIG_free
                0x00000000401b63d0                d2i_NETSCAPE_SPKAC
                0x00000000401b63e0                i2d_NETSCAPE_SPKAC
                0x00000000401b63f0                NETSCAPE_SPKAC_new
                0x00000000401b6400                NETSCAPE_SPKAC_free
                0x00000000401b6410                d2i_NETSCAPE_SPKI
                0x00000000401b6420                i2d_NETSCAPE_SPKI
                0x00000000401b6430                NETSCAPE_SPKI_new
                0x00000000401b6440                NETSCAPE_SPKI_free
                0x00000000401b656c                d2i_X509_CINF
                0x00000000401b657c                i2d_X509_CINF
                0x00000000401b658c                X509_CINF_new
                0x00000000401b659c                X509_CINF_free
                0x00000000401b65ac                d2i_X509
                0x00000000401b65bc                i2d_X509
                0x00000000401b65cc                X509_new
                0x00000000401b65dc                X509_free
                0x00000000401b65ec                X509_dup
                0x00000000401b65ff                X509_get_ex_new_index
                0x00000000401b661e                X509_set_ex_data
                0x00000000401b662d                X509_get_ex_data
                0x00000000401b663c                d2i_X509_AUX
                0x00000000401b66ac                i2d_X509_AUX
                0x00000000401b66f8                d2i_X509_CERT_AUX
                0x00000000401b6708                i2d_X509_CERT_AUX
                0x00000000401b6718                X509_CERT_AUX_new
                0x00000000401b6770                X509_CERT_AUX_free
                0x00000000401b6780                X509_alias_set1
                0x00000000401b6828                X509_keyid_set1
                0x00000000401b68d0                X509_alias_get0
                0x00000000401b6911                X509_keyid_get0
                0x00000000401b6952                X509_add1_trust_object
                0x00000000401b69bf                X509_add1_reject_object
                0x00000000401b6a21                X509_trust_clear
                0x00000000401b6a60                X509_reject_clear
                0x00000000401b6aa1                d2i_X509_CERT_PAIR
                0x00000000401b6ab1                i2d_X509_CERT_PAIR
                0x00000000401b6ac1                X509_CERT_PAIR_new
                0x00000000401b6ad1                X509_CERT_PAIR_free
                0x00000000401b6ae4                DES_xcbc_encrypt
                0x00000000401b725c                ERR_load_TS_strings
                0x00000000401b7294                ERR_load_CMS_strings
                0x00000000401b7316                OBJ_find_sigid_algs
                0x00000000401b739e                OBJ_find_sigid_by_algs
                0x00000000401b7426                OBJ_add_sigid
                0x00000000401b7534                OBJ_sigid_free
                0x00000000401b75ab                EVP_whirlpool
                0x00000000401b75db                EVP_PKEY_meth_find
                0x00000000401b7654                EVP_PKEY_meth_new
                0x00000000401b7772                EVP_PKEY_meth_free
                0x00000000401b7788                EVP_PKEY_meth_add0
                0x00000000401b77eb                EVP_PKEY_CTX_free
                0x00000000401b783a                EVP_PKEY_CTX_dup
                0x00000000401b7a70                EVP_PKEY_CTX_new_id
                0x00000000401b7a82                EVP_PKEY_CTX_new
                0x00000000401b7a92                EVP_PKEY_CTX_ctrl
                0x00000000401b7b8a                EVP_PKEY_CTX_ctrl_str
                0x00000000401b7c6f                EVP_PKEY_CTX_get_operation
                0x00000000401b7c78                EVP_PKEY_CTX_set0_keygen_info
                0x00000000401b7c85                EVP_PKEY_CTX_set_data
                0x00000000401b7c8f                EVP_PKEY_CTX_get_data
                0x00000000401b7c99                EVP_PKEY_CTX_get0_pkey
                0x00000000401b7ca3                EVP_PKEY_CTX_get0_peerkey
                0x00000000401b7cad                EVP_PKEY_CTX_set_app_data
                0x00000000401b7cb7                EVP_PKEY_CTX_get_app_data
                0x00000000401b7cc1                EVP_PKEY_meth_set_init
                0x00000000401b7ccb                EVP_PKEY_meth_set_copy
                0x00000000401b7cd5                EVP_PKEY_meth_set_cleanup
                0x00000000401b7cdf                EVP_PKEY_meth_set_paramgen
                0x00000000401b7ced                EVP_PKEY_meth_set_keygen
                0x00000000401b7cfb                EVP_PKEY_meth_set_sign
                0x00000000401b7d09                EVP_PKEY_meth_set_verify
                0x00000000401b7d17                EVP_PKEY_meth_set_verify_recover
                0x00000000401b7d25                EVP_PKEY_meth_set_signctx
                0x00000000401b7d33                EVP_PKEY_meth_set_verifyctx
                0x00000000401b7d47                EVP_PKEY_meth_set_encrypt
                0x00000000401b7d5b                EVP_PKEY_meth_set_decrypt
                0x00000000401b7d6f                EVP_PKEY_meth_set_derive
                0x00000000401b7d83                EVP_PKEY_meth_set_ctrl
                0x00000000401b7db3                EVP_PKEY_asn1_get_count
                0x00000000401b7dd2                EVP_PKEY_asn1_get0
                0x00000000401b7e02                EVP_PKEY_asn1_find
                0x00000000401b7ea5                EVP_PKEY_asn1_find_str
                0x00000000401b7f2c                EVP_PKEY_asn1_add0
                0x00000000401b7f8f                EVP_PKEY_asn1_get0_info
                0x00000000401b7fe1                EVP_PKEY_get0_asn1
                0x00000000401b7feb                EVP_PKEY_asn1_copy
                0x00000000401b80b3                EVP_PKEY_asn1_free
                0x00000000401b80f5                EVP_PKEY_asn1_new
                0x00000000401b826a                EVP_PKEY_asn1_add_alias
                0x00000000401b82a7                EVP_PKEY_asn1_set_public
                0x00000000401b82c9                EVP_PKEY_asn1_set_private
                0x00000000401b82db                EVP_PKEY_asn1_set_param
                0x00000000401b8306                EVP_PKEY_asn1_set_free
                0x00000000401b8313                EVP_PKEY_asn1_set_ctrl
                0x00000000401b8320                EVP_PKEY_sign_init
                0x00000000401b838f                EVP_PKEY_sign
                0x00000000401b849b                EVP_PKEY_verify_init
                0x00000000401b850a                EVP_PKEY_verify
                0x00000000401b857a                EVP_PKEY_verify_recover_init
                0x00000000401b85e9                EVP_PKEY_verify_recover
                0x00000000401b86f5                EVP_PKEY_encrypt_init
                0x00000000401b876a                EVP_PKEY_encrypt
                0x00000000401b887f                EVP_PKEY_decrypt_init
                0x00000000401b88f4                EVP_PKEY_decrypt
                0x00000000401b8a09                EVP_PKEY_derive_init
                0x00000000401b8a7e                EVP_PKEY_derive_set_peer
                0x00000000401b8c60                EVP_PKEY_derive
                0x00000000401b8e76                ASN1_PCTX_new
                0x00000000401b8eed                ASN1_PCTX_free
                0x00000000401b8ef8                ASN1_PCTX_get_flags
                0x00000000401b8f01                ASN1_PCTX_set_flags
                0x00000000401b8f0a                ASN1_PCTX_get_nm_flags
                0x00000000401b8f14                ASN1_PCTX_set_nm_flags
                0x00000000401b8f1e                ASN1_PCTX_get_cert_flags
                0x00000000401b8f28                ASN1_PCTX_set_cert_flags
                0x00000000401b8f32                ASN1_PCTX_get_oid_flags
                0x00000000401b8f3c                ASN1_PCTX_set_oid_flags
                0x00000000401b8f46                ASN1_PCTX_get_str_flags
                0x00000000401b8f50                ASN1_PCTX_set_str_flags
                0x00000000401b8f5a                asn1_template_print_ctx
                0x00000000401b9895                ASN1_item_print
                0x00000000401b9a6f                EVP_DigestSignInit
                0x00000000401b9a80                EVP_DigestVerifyInit
                0x00000000401b9a91                EVP_DigestSignFinal
                0x00000000401b9bd0                EVP_DigestVerifyFinal
                0x00000000401b9cb0                WHIRLPOOL_Init
                0x00000000401b9cca                WHIRLPOOL_BitUpdate
                0x00000000401b9fd3                WHIRLPOOL_Update
                0x00000000401ba08f                WHIRLPOOL_Final
                0x00000000401ba196                WHIRLPOOL
                0x00000000401bd5a9                DHparams_print
                0x00000000401bf58c                whirlpool_block
                0x00000000401c0119                EVP_PKEY_paramgen_init
                0x00000000401c0188                EVP_PKEY_paramgen
                0x00000000401c0241                EVP_PKEY_keygen_init
                0x00000000401c02b0                EVP_PKEY_keygen
                0x00000000401c0369                EVP_PKEY_CTX_set_cb
                0x00000000401c0373                EVP_PKEY_CTX_get_cb
                0x00000000401c037d                evp_pkey_set_cb_translate
                0x00000000401c0395                EVP_PKEY_CTX_get_keygen_info
                0x00000000401c03bd                EVP_PKEY_new_mac_key
                0x00000000401c054c                CMS_SignedData_init
                0x00000000401c0560                cms_set1_SignerIdentifier
                0x00000000401c0680                cms_SignerIdentifier_get0_signer_id
                0x00000000401c06d7                cms_SignerIdentifier_cert_cmp
                0x00000000401c0754                CMS_get0_SignerInfos
                0x00000000401c076f                CMS_get0_signers
                0x00000000401c07f4                CMS_SignerInfo_set1_signer_cert
                0x00000000401c0855                CMS_SignerInfo_get0_signer_id
                0x00000000401c0864                CMS_SignerInfo_cert_cmp
                0x00000000401c0873                CMS_set1_signers_certs
                0x00000000401c09a5                CMS_SignerInfo_get0_algs
                0x00000000401c09db                CMS_SignerInfo_sign
                0x00000000401c0c2f                cms_SignedData_final
                0x00000000401c0e50                CMS_SignerInfo_verify
                0x00000000401c0f7d                cms_SignedData_init_bio
                0x00000000401c114a                CMS_SignerInfo_verify_content
                0x00000000401c12fe                CMS_add_smimecap
                0x00000000401c135e                CMS_add_simple_smimecap
                0x00000000401c14a6                CMS_add_standard_smimecap
                0x00000000401c15e3                CMS_add1_signer
                0x00000000401c1b44                CMS_get0_RecipientInfos
                0x00000000401c1b5f                CMS_RecipientInfo_type
                0x00000000401c1b67                CMS_EnvelopedData_create
                0x00000000401c1c72                CMS_add1_recipient_cert
                0x00000000401c1e56                CMS_RecipientInfo_ktri_get0_algs
                0x00000000401c1eb9                CMS_RecipientInfo_ktri_get0_signer_id
                0x00000000401c1ef7                CMS_RecipientInfo_ktri_cert_cmp
                0x00000000401c1f35                CMS_RecipientInfo_set0_pkey
                0x00000000401c1f73                CMS_RecipientInfo_kekri_id_cmp
                0x00000000401c1fd2                CMS_add0_recipient_key
                0x00000000401c2221                CMS_RecipientInfo_kekri_get0_id
                0x00000000401c22c7                CMS_RecipientInfo_set0_key
                0x00000000401c2309                CMS_RecipientInfo_decrypt
                0x00000000401c26df                cms_EnvelopedData_init_bio
                0x00000000401c2b5c                EC_KEY_print
                0x00000000401c2bd7                ECParameters_print
                0x00000000401c2c49                ECPKParameters_print
                0x00000000401c386c                CMS_signed_get_attr_count
                0x00000000401c387b                CMS_signed_get_attr_by_NID
                0x00000000401c388a                CMS_signed_get_attr_by_OBJ
                0x00000000401c3899                CMS_signed_get_attr
                0x00000000401c38a8                CMS_signed_delete_attr
                0x00000000401c38b7                CMS_signed_add1_attr
                0x00000000401c38cf                CMS_signed_add1_attr_by_OBJ
                0x00000000401c38e7                CMS_signed_add1_attr_by_NID
                0x00000000401c38ff                CMS_signed_add1_attr_by_txt
                0x00000000401c3917                CMS_signed_get0_data_by_OBJ
                0x00000000401c3926                CMS_unsigned_get_attr_count
                0x00000000401c3935                CMS_unsigned_get_attr_by_NID
                0x00000000401c3944                CMS_unsigned_get_attr_by_OBJ
                0x00000000401c3953                CMS_unsigned_get_attr
                0x00000000401c3962                CMS_unsigned_delete_attr
                0x00000000401c3971                CMS_unsigned_add1_attr
                0x00000000401c3989                CMS_unsigned_add1_attr_by_OBJ
                0x00000000401c39a1                CMS_unsigned_add1_attr_by_NID
                0x00000000401c39b9                CMS_unsigned_add1_attr_by_txt
                0x00000000401c39d1                CMS_unsigned_get0_data_by_OBJ
                0x00000000401c3b4e                d2i_CMS_ContentInfo
                0x00000000401c3b5e                i2d_CMS_ContentInfo
                0x00000000401c3b6e                CMS_ContentInfo_new
                0x00000000401c3b7e                CMS_ContentInfo_free
                0x00000000401c3b8e                CMS_ContentInfo_print_ctx
                0x00000000401c3ba1                CMS_get0_type
                0x00000000401c3baa                CMS_get0_content
                0x00000000401c3c85                CMS_dataFinal
                0x00000000401c3df9                cms_content_bio
                0x00000000401c3e49                CMS_dataInit
                0x00000000401c3f4a                CMS_get0_eContentType
                0x00000000401c3f64                CMS_set1_eContentType
                0x00000000401c3fbf                CMS_is_detached
                0x00000000401c3fe0                CMS_set_detached
                0x00000000401c4076                cms_Data_create
                0x00000000401c40b0                cms_DigestAlgorithm_set
                0x00000000401c4101                cms_DigestAlgorithm_init_bio
                0x00000000401c41d4                cms_DigestAlgorithm_find_ctx
                0x00000000401c42b4                CMS_add0_CertificateChoices
                0x00000000401c4325                CMS_add0_cert
                0x00000000401c43ce                CMS_add1_cert
                0x00000000401c4417                CMS_add0_RevocationInfoChoice
                0x00000000401c4488                CMS_add0_crl
                0x00000000401c44b9                CMS_add1_crl
                0x00000000401c4502                CMS_get1_certs
                0x00000000401c45bf                CMS_get1_crls
                0x00000000401c47b0                cms_EncryptedContent_init_bio
                0x00000000401c4b96                cms_EncryptedContent_init
                0x00000000401c4c22                CMS_EncryptedData_set1_key
                0x00000000401c4d2c                cms_EncryptedData_init_bio
                0x00000000401c4d58                AES_wrap_key
                0x00000000401c4e8f                AES_unwrap_key
                0x00000000401c4ff0                cms_DigestedData_create
                0x00000000401c5087                cms_DigestedData_init_bio
                0x00000000401c509a                cms_DigestedData_do_final
                0x00000000401c51b8                CMS_stream
                0x00000000401c5234                d2i_CMS_bio
                0x00000000401c524a                i2d_CMS_bio
                0x00000000401c5260                PEM_read_bio_CMS
                0x00000000401c5281                PEM_write_bio_CMS
                0x00000000401c52c5                BIO_new_CMS
                0x00000000401c52d5                i2d_CMS_bio_stream
                0x00000000401c52e6                PEM_write_bio_CMS_stream
                0x00000000401c52fd                SMIME_write_CMS
                0x00000000401c538d                SMIME_read_CMS
                0x00000000401c5ccb                SMIME_read_ASN1
                0x00000000401c60f0                SMIME_crlf_copy
                0x00000000401c621b                i2d_ASN1_bio_stream
                0x00000000401c63b3                SMIME_write_ASN1
                0x00000000401c6a40                PEM_write_bio_ASN1_stream
                0x00000000401c6ac7                SMIME_text
                0x00000000401c6e15                BIO_new_NDEF
                0x00000000401c7631                BIO_f_asn1
                0x00000000401c763c                BIO_asn1_set_prefix
                0x00000000401c7652                BIO_asn1_get_prefix
                0x00000000401c7668                BIO_asn1_set_suffix
                0x00000000401c767e                BIO_asn1_get_suffix
                0x00000000401c76a0                chelp_snprintf
                0x00000000401c76dd                chelp_sprintf
                0x00000000401c7724                chelp_print
                0x00000000401c773c                chelp_printf
                0x00000000401c77a4                chelp_mod_64_32_32
                0x00000000401c77b9                chelp_div_64_32_64
                0x00000000401c77cc                chelp_div_64_32_32
                0x00000000401c77d7                chelp_mul_64_64_64
                0x00000000401c77e4                BIO_printf
                0x00000000401c7821                BIO_snprintf
                0x00000000401c7857                chelp_abort
                0x00000000401c786a                RAND_poll
                0x00000000401c7889                InitCryptoLibrary
                0x00000000401c7900                chelp_malloc
                0x00000000401c7917                chelp_realloc
                0x00000000401c793a                chelp_free
                0x00000000401c794a                chelp_swap
                0x00000000401c797e                chelp_qsort
                0x00000000401c7c92                chelp_bsearch
                0x00000000401c7d61                chelp_memchr
                0x00000000401c7d9a                chelp_memmove
                0x00000000401c7e19                chelp_memcmp
                0x00000000401c7e88                chelp_memcpy
                0x00000000401c7eb4                chelp_memset
                0x00000000401c7ee0                chelp_isupper
                0x00000000401c7ef3                chelp_islower
                0x00000000401c7f06                chelp_toupper
                0x00000000401c7f12                chelp_tolower
                0x00000000401c7f1e                chelp_isspace
                0x00000000401c7f3a                chelp_isdigit
                0x00000000401c7f4d                chelp_isxdigit
                0x00000000401c7f75                chelp_isalpha
                0x00000000401c7f92                chelp_isalnum
                0x00000000401c7fbb                chelp_strtoul_ex
                0x00000000401c818c                chelp_strtoul
                0x00000000401c819c                chelp_strtol
                0x00000000401c81ac                chelp_strcpy
                0x00000000401c81da                chelp_strncpy
                0x00000000401c8247                chelp_strcat
                0x00000000401c8288                chelp_strcmp
                0x00000000401c82e8                chelp_strncmp
                0x00000000401c846a                chelp_stricmp
                0x00000000401c84a9                chelp_strchr
                0x00000000401c84e1                chelp_strrchr
                0x00000000401c8515                chelp_strlen
                0x00000000401c853c                chelp_strncasecmp
                0x00000000401c8590                decryptcfg
                0x00000000401c8618                ASN1_BIT_STRING_set
                0x00000000401c8623                i2c_ASN1_BIT_STRING
                0x00000000401c8730                c2i_ASN1_BIT_STRING
                0x00000000401c88a9                ASN1_BIT_STRING_set_bit
                0x00000000401c8a08                ASN1_BIT_STRING_get_bit
                0x00000000401c8a50                ASN1_BIT_STRING_check
                0x00000000401c8ab0                d2i_ASN1_type_bytes
                0x00000000401c8c55                i2d_ASN1_bytes
                0x00000000401c8d0c                d2i_ASN1_bytes
                0x00000000401c935b                ASN1_d2i_bio
                0x00000000401c93cd                ASN1_item_d2i_bio
                0x00000000401c9444                ASN1_digest
                0x00000000401c950b                ASN1_item_digest
                0x00000000401c9588                ASN1_dup
                0x00000000401c9643                ASN1_item_dup
                0x00000000401c96cc                ASN1_ENUMERATED_set
                0x00000000401c97e1                ASN1_ENUMERATED_get
                0x00000000401c9859                BN_to_ASN1_ENUMERATED
                0x00000000401c9960                ASN1_ENUMERATED_to_BN
                0x00000000401c99d0                ASN1_GENERALIZEDTIME_check
                0x00000000401c9c42                ASN1_GENERALIZEDTIME_set_string
                0x00000000401c9cbf                ASN1_GENERALIZEDTIME_adj
                0x00000000401c9e1b                ASN1_GENERALIZEDTIME_set
                0x00000000401c9e30                ASN1_i2d_bio
                0x00000000401c9eee                ASN1_item_i2d_bio
                0x00000000401c9f90                ASN1_INTEGER_dup
                0x00000000401c9f9b                ASN1_INTEGER_cmp
                0x00000000401c9fdb                i2c_ASN1_INTEGER
                0x00000000401ca153                c2i_ASN1_INTEGER
                0x00000000401ca34f                d2i_ASN1_UINTEGER
                0x00000000401ca4be                ASN1_INTEGER_set
                0x00000000401ca5d3                ASN1_INTEGER_get
                0x00000000401ca64d                BN_to_ASN1_INTEGER
                0x00000000401ca765                ASN1_INTEGER_to_BN
                0x00000000401ca7e0                i2d_ASN1_OBJECT
                0x00000000401ca877                a2d_ASN1_OBJECT
                0x00000000401cad7e                i2t_ASN1_OBJECT
                0x00000000401cad8e                i2a_ASN1_OBJECT
                0x00000000401cae74                ASN1_OBJECT_new
                0x00000000401caef0                ASN1_OBJECT_free
                0x00000000401caf69                c2i_ASN1_OBJECT
                0x00000000401cb114                d2i_ASN1_OBJECT
                0x00000000401cb1a0                ASN1_OBJECT_create
                0x00000000401cb1cc                ASN1_OCTET_STRING_dup
                0x00000000401cb1d7                ASN1_OCTET_STRING_cmp
                0x00000000401cb1e2                ASN1_OCTET_STRING_set
                0x00000000401cb1f0                ASN1_sign
                0x00000000401cb48e                ASN1_item_sign
                0x00000000401cbea2                X509_NAME_print_ex
                0x00000000401cc382                ASN1_STRING_print_ex
                0x00000000401cc398                ASN1_STRING_to_UTF8
                0x00000000401cc40c                d2i_ASN1_TIME
                0x00000000401cc41c                i2d_ASN1_TIME
                0x00000000401cc42c                ASN1_TIME_new
                0x00000000401cc43c                ASN1_TIME_free
                0x00000000401cc44c                ASN1_TIME_adj
                0x00000000401cc50f                ASN1_TIME_set
                0x00000000401cc524                ASN1_TIME_check
                0x00000000401cc548                ASN1_TIME_to_generalizedtime
                0x00000000401cc63b                ASN1_TIME_set_string
                0x00000000401cc6bc                ASN1_TYPE_get
                0x00000000401cc6d5                ASN1_TYPE_set
                0x00000000401cc736                ASN1_TYPE_set1
                0x00000000401cc7c2                ASN1_TYPE_cmp
                0x00000000401cc810                ASN1_UTCTIME_check
                0x00000000401cca34                ASN1_UTCTIME_set_string
                0x00000000401ccab1                ASN1_UTCTIME_adj
                0x00000000401ccc39                ASN1_UTCTIME_set
                0x00000000401ccc4e                ASN1_UTCTIME_cmp_time_t
                0x00000000401ccdc0                UTF8_getc
                0x00000000401cd14f                UTF8_putc
                0x00000000401cd378                ASN1_verify
                0x00000000401cd4e7                ASN1_item_verify
                0x00000000401cd6e0                AES_cbc_encrypt
                0x00000000401cd704                AES_cfb128_encrypt
                0x00000000401cd722                AES_cfb1_encrypt
                0x00000000401cd740                AES_cfb8_encrypt
                0x00000000401cd760                AES_ecb_encrypt
                0x00000000401cd778                AES_ofb128_encrypt
                0x00000000401cd790                ERR_load_ASN1_strings
                0x00000000401cd7ff                ASN1_check_infinite_end
                0x00000000401cd80a                ASN1_const_check_infinite_end
                0x00000000401cd86e                ASN1_get_object
                0x00000000401cda30                ASN1_put_object
                0x00000000401cdb32                ASN1_put_eoc
                0x00000000401cdb4e                ASN1_object_size
                0x00000000401cdb8a                asn1_Finish
                0x00000000401cdb95                asn1_const_Finish
                0x00000000401cdba0                asn1_GetSequence
                0x00000000401cdc4e                ASN1_STRING_set
                0x00000000401cdd50                ASN1_STRING_copy
                0x00000000401cdda1                ASN1_STRING_set0
                0x00000000401cdde1                ASN1_STRING_type_new
                0x00000000401cde58                ASN1_STRING_new
                0x00000000401cde68                ASN1_STRING_free
                0x00000000401cde9c                ASN1_STRING_dup
                0x00000000401cdeef                ASN1_STRING_cmp
                0x00000000401cdf30                asn1_add_error
                0x00000000401cdf98                ASN1_STRING_length
                0x00000000401cdfa0                ASN1_STRING_length_set
                0x00000000401cdfa8                ASN1_STRING_type
                0x00000000401cdfb1                ASN1_STRING_data
                0x00000000401cdfc0                ASN1_tag2str
                0x00000000401ceb9f                ASN1_parse_dump
                0x00000000401cebc8                ASN1_parse
                0x00000000401cec0a                BIO_dump_indent_cb
                0x00000000401cf01e                BIO_dump_cb
                0x00000000401cf02f                BIO_dump
                0x00000000401cf047                BIO_dump_indent
                0x00000000401cfa1c                BIO_f_buffer
                0x00000000401cfa30                BF_cfb64_encrypt
                0x00000000401cfc18                BF_options
                0x00000000401cfc23                BF_ecb_encrypt
                0x00000000401cfcd4                BF_encrypt
                0x00000000401d0095                BF_decrypt
                0x00000000401d0456                BF_cbc_encrypt
                0x00000000401d09e8                BF_ofb64_encrypt
                0x00000000401d0b78                BF_set_key
                0x00000000401d19a1                BIO_f_base64
                0x00000000401d20a0                BIO_f_cipher
                0x00000000401d20ab                BIO_set_cipher
                0x00000000401d2160                ERR_load_BIO_strings
                0x00000000401d251a                BIO_f_md
                0x00000000401d2530                BN_uadd
                0x00000000401d2674                BN_usub
                0x00000000401d286e                BN_add
                0x00000000401d2919                BN_sub
                0x00000000401d2a2c                bn_mul_add_words
                0x00000000401d2c94                bn_mul_words
                0x00000000401d2ee0                bn_sqr_words
                0x00000000401d3033                bn_div_words
                0x00000000401d3183                bn_add_words
                0x00000000401d326f                bn_sub_words
                0x00000000401d3379                bn_mul_comba8
                0x00000000401d4c1e                bn_mul_comba4
                0x00000000401d523d                bn_sqr_comba8
                0x00000000401d6287                bn_sqr_comba4
                0x00000000401d6680                BN_BLINDING_free
                0x00000000401d66d7                BN_BLINDING_new
                0x00000000401d67c2                BN_BLINDING_invert_ex
                0x00000000401d6825                BN_BLINDING_invert
                0x00000000401d683b                BN_BLINDING_get_thread_id
                0x00000000401d6845                BN_BLINDING_set_thread_id
                0x00000000401d684f                BN_BLINDING_thread_id
                0x00000000401d6859                BN_BLINDING_get_flags
                0x00000000401d6863                BN_BLINDING_set_flags
                0x00000000401d686d                BN_BLINDING_create_param
                0x00000000401d6a01                BN_BLINDING_update
                0x00000000401d6af3                BN_BLINDING_convert_ex
                0x00000000401d6bce                BN_BLINDING_convert
                0x00000000401d6be4                BN_CTX_init
                0x00000000401d6c5f                BN_CTX_new
                0x00000000401d6cff                BN_CTX_free
                0x00000000401d6d7f                BN_CTX_start
                0x00000000401d6e65                BN_CTX_end
                0x00000000401d6eda                BN_CTX_get
                0x00000000401d7040                BN_div
                0x00000000401d7b64                ERR_load_BN_strings
                0x00000000401d7c7d                BN_exp
                0x00000000401d7e1d                BN_mod_exp_recp
                0x00000000401d82a9                BN_mod_exp_mont_consttime
                0x00000000401d88dc                BN_mod_exp_mont
                0x00000000401d8ebb                BN_mod_exp_mont_word
                0x00000000401d92fd                BN_mod_exp
                0x00000000401d9349                BN_mod_exp_simple
                0x00000000401d97c0                BN_gcd
                0x00000000401d99d6                BN_mod_inverse
                0x00000000401da450                BN_nnmod
                0x00000000401da4ac                BN_mod_add
                0x00000000401da4fa                BN_mod_add_quick
                0x00000000401da54e                BN_mod_sub
                0x00000000401da59c                BN_mod_sub_quick
                0x00000000401da5e4                BN_mod_mul
                0x00000000401da69c                BN_mod_sqr
                0x00000000401da6f2                BN_mod_lshift1
                0x00000000401da740                BN_mod_lshift1_quick
                0x00000000401da794                BN_mod_lshift_quick
                0x00000000401da88f                BN_mod_lshift
                0x00000000401dac9c                BN_mod_mul_montgomery
                0x00000000401dad51                BN_from_montgomery
                0x00000000401daddb                BN_MONT_CTX_init
                0x00000000401dae24                BN_MONT_CTX_new
                0x00000000401dae62                BN_MONT_CTX_free
                0x00000000401daea3                BN_MONT_CTX_set
                0x00000000401db09d                BN_MONT_CTX_copy
                0x00000000401db11d                BN_MONT_CTX_set_locked
                0x00000000401db220                bn_sub_part_words
                0x00000000401db4b3                bn_add_part_words
                0x00000000401db871                bn_mul_normal
                0x00000000401db9d9                bn_mul_recursive
                0x00000000401dbe6b                bn_mul_high
                0x00000000401dc2e7                bn_mul_part_recursive
                0x00000000401dc7bb                BN_mul
                0x00000000401dcb0b                bn_mul_low_normal
                0x00000000401dcbed                bn_mul_low_recursive
                0x00000000401dce27                BN_GENCB_call
                0x00000000401dce75                BN_is_prime_fasttest_ex
                0x00000000401dd344                BN_is_prime_ex
                0x00000000401dd357                BN_generate_prime_ex
                0x00000000401dd8a8                BN_RECP_CTX_init
                0x00000000401dd8d7                BN_RECP_CTX_new
                0x00000000401dd915                BN_RECP_CTX_free
                0x00000000401dd949                BN_RECP_CTX_set
                0x00000000401dd99f                BN_reciprocal
                0x00000000401dda38                BN_div_recp
                0x00000000401ddce3                BN_mod_mul_reciprocal
                0x00000000401dddac                BN_lshift1
                0x00000000401dde6b                BN_rshift1
                0x00000000401ddf43                BN_lshift
                0x00000000401de0a3                BN_rshift
                0x00000000401de250                bn_sqr_normal
                0x00000000401de32c                bn_sqr_recursive
                0x00000000401de4ea                BN_sqr
                0x00000000401de7d4                BIO_s_null
                0x00000000401de7e0                ERR_load_BUF_strings
                0x00000000401de820                CAST_cfb64_encrypt
                0x00000000401dea08                CAST_ecb_encrypt
                0x00000000401deab8                CAST_encrypt
                0x00000000401def14                CAST_decrypt
                0x00000000401df396                CAST_cbc_encrypt
                0x00000000401df928                CAST_ofb64_encrypt
                0x00000000401dfab8                CAST_set_key
                0x00000000401e0550                DES_ede3_cfb64_encrypt
                0x00000000401e077b                DES_ede3_cfb_encrypt
                0x00000000401e0f80                DES_cfb64_encrypt
                0x00000000401e11a0                DES_cfb_encrypt
                0x00000000401e17cc                ERR_load_COMP_strings
                0x00000000401e1804                ERR_load_CONF_strings
                0x00000000401e183c                ERR_load_CRYPTO_strings
                0x00000000401e1880                d2i_PrivateKey
                0x00000000401e19e1                d2i_AutoPrivateKey
                0x00000000401e1b4e                d2i_DHparams
                0x00000000401e1b5e                i2d_DHparams
                0x00000000401e1b6e                DHparams_dup
                0x00000000401e1b90                DH_check
                0x00000000401e1cc9                DH_check_pub_key
                0x00000000401e1d74                ERR_load_DH_strings
                0x00000000401e1db0                DH_generate_parameters_ex
                0x00000000401e1fb8                EVP_MD_CTX_init
                0x00000000401e1fcd                EVP_MD_CTX_create
                0x00000000401e2004                EVP_DigestInit_ex
                0x00000000401e20e3                EVP_DigestInit
                0x00000000401e2118                EVP_DigestUpdate
                0x00000000401e2124                EVP_DigestFinal_ex
                0x00000000401e21bf                EVP_MD_CTX_cleanup
                0x00000000401e225c                EVP_MD_CTX_destroy
                0x00000000401e227c                EVP_Digest
                0x00000000401e2326                EVP_MD_CTX_copy_ex
                0x00000000401e2463                EVP_MD_CTX_copy
                0x00000000401e2493                EVP_DigestFinal
                0x00000000401e257e                d2i_DSA_SIG
                0x00000000401e258e                i2d_DSA_SIG
                0x00000000401e259e                DSA_SIG_new
                0x00000000401e25ae                DSA_SIG_free
                0x00000000401e25be                d2i_DSAPrivateKey
                0x00000000401e25ce                i2d_DSAPrivateKey
                0x00000000401e25de                d2i_DSAparams
                0x00000000401e25ee                i2d_DSAparams
                0x00000000401e25fe                d2i_DSAPublicKey
                0x00000000401e260e                i2d_DSAPublicKey
                0x00000000401e261e                DSAparams_dup
                0x00000000401e2634                ERR_load_DSA_strings
                0x00000000401e2670                dsa_builtin_paramgen
                0x00000000401e2f65                DSA_generate_parameters_ex
                0x00000000401e3010                DSA_generate_key
                0x00000000401e3178                DSA_set_default_method
                0x00000000401e3185                DSA_get_default_method
                0x00000000401e31a8                DSA_set_method
                0x00000000401e31ef                DSA_new_method
                0x00000000401e32f0                DSA_new
                0x00000000401e3300                DSA_free
                0x00000000401e33cf                DSA_up_ref
                0x00000000401e33fc                DSA_size
                0x00000000401e3451                DSA_get_ex_new_index
                0x00000000401e3470                DSA_set_ex_data
                0x00000000401e347f                DSA_get_ex_data
                0x00000000401e348e                DSA_dup_DH
                0x00000000401e3e2c                DSA_OpenSSL
                0x00000000401e3e38                DSA_do_sign
                0x00000000401e3e45                DSA_sign
                0x00000000401e3ec9                DSA_sign_setup
                0x00000000401e3ed8                DSA_do_verify
                0x00000000401e3ee5                DSA_verify
                0x00000000401e3f70                ERR_load_DSO_strings
                0x00000000401e48c1                EC_GROUP_get_basis_type
                0x00000000401e4926                EC_GROUP_get_trinomial_basis
                0x00000000401e49af                EC_GROUP_get_pentanomial_basis
                0x00000000401e4a86                X9_62_PENTANOMIAL_new
                0x00000000401e4a96                X9_62_PENTANOMIAL_free
                0x00000000401e4aa6                X9_62_CHARACTERISTIC_TWO_new
                0x00000000401e4ab6                X9_62_CHARACTERISTIC_TWO_free
                0x00000000401e4ac6                ECPARAMETERS_new
                0x00000000401e4ad6                ECPARAMETERS_free
                0x00000000401e4ae6                d2i_ECPKPARAMETERS
                0x00000000401e4af6                i2d_ECPKPARAMETERS
                0x00000000401e4b06                ECPKPARAMETERS_new
                0x00000000401e4b16                ECPKPARAMETERS_free
                0x00000000401e571e                d2i_EC_PRIVATEKEY
                0x00000000401e572e                i2d_EC_PRIVATEKEY
                0x00000000401e573e                EC_PRIVATEKEY_new
                0x00000000401e574e                EC_PRIVATEKEY_free
                0x00000000401e575e                d2i_ECPKParameters
                0x00000000401e581b                i2d_ECPKParameters
                0x00000000401e58a9                d2i_ECPrivateKey
                0x00000000401e5b26                i2d_ECPrivateKey
                0x00000000401e5eb6                i2d_ECParameters
                0x00000000401e5eee                d2i_ECParameters
                0x00000000401e5fd4                o2i_ECPublicKey
                0x00000000401e60ce                i2o_ECPublicKey
                0x00000000401e6218                EC_GROUP_new_by_curve_name
                0x00000000401e672c                EC_get_builtin_curves
                0x00000000401e6780                EC_GROUP_new_curve_GFp
                0x00000000401e6868                EC_GROUP_new_curve_GF2m
                0x00000000401e68e4                ERR_load_EC_strings
                0x00000000401e6920                EC_KEY_new
                0x00000000401e69ab                EC_KEY_free
                0x00000000401e6a2d                EC_KEY_new_by_curve_name
                0x00000000401e6a78                EC_KEY_copy
                0x00000000401e6c33                EC_KEY_dup
                0x00000000401e6c7d                EC_KEY_up_ref
                0x00000000401e6caa                EC_KEY_generate_key
                0x00000000401e6e89                EC_KEY_check_key
                0x00000000401e7139                EC_KEY_get0_group
                0x00000000401e7143                EC_KEY_set_group
                0x00000000401e7186                EC_KEY_get0_private_key
                0x00000000401e7190                EC_KEY_set_private_key
                0x00000000401e71d3                EC_KEY_get0_public_key
                0x00000000401e71dd                EC_KEY_set_public_key
                0x00000000401e7224                EC_KEY_get_enc_flags
                0x00000000401e722d                EC_KEY_set_enc_flags
                0x00000000401e7236                EC_KEY_get_conv_form
                0x00000000401e723f                EC_KEY_set_conv_form
                0x00000000401e7256                EC_KEY_get_key_method_data
                0x00000000401e7265                EC_KEY_insert_key_method_data
                0x00000000401e7304                EC_KEY_set_asn1_flag
                0x00000000401e7318                EC_KEY_precompute_mult
                0x00000000401e7340                EC_GROUP_new
                0x00000000401e7450                EC_GROUP_method_of
                0x00000000401e7459                EC_METHOD_get_field_type
                0x00000000401e7461                EC_GROUP_get0_generator
                0x00000000401e746b                EC_GROUP_get_order
                0x00000000401e74a0                EC_GROUP_get_cofactor
                0x00000000401e74d5                EC_GROUP_set_curve_name
                0x00000000401e74de                EC_GROUP_get_curve_name
                0x00000000401e74e7                EC_GROUP_set_asn1_flag
                0x00000000401e74f0                EC_GROUP_get_asn1_flag
                0x00000000401e74f9                EC_GROUP_set_point_conversion_form
                0x00000000401e7502                EC_GROUP_get_point_conversion_form
                0x00000000401e750b                EC_GROUP_set_seed
                0x00000000401e759e                EC_GROUP_get0_seed
                0x00000000401e75a8                EC_GROUP_get_seed_len
                0x00000000401e75b2                EC_GROUP_set_curve_GFp
                0x00000000401e75f1                EC_GROUP_get_curve_GFp
                0x00000000401e762b                EC_GROUP_set_curve_GF2m
                0x00000000401e7665                EC_GROUP_get_curve_GF2m
                0x00000000401e76a1                EC_GROUP_get_degree
                0x00000000401e76db                EC_GROUP_check_discriminant
                0x00000000401e7715                EC_EX_DATA_set_data
                0x00000000401e77e5                EC_EX_DATA_get_data
                0x00000000401e781a                EC_EX_DATA_free_data
                0x00000000401e7869                EC_EX_DATA_clear_free_data
                0x00000000401e78b8                EC_EX_DATA_free_all_data
                0x00000000401e7904                EC_EX_DATA_clear_free_all_data
                0x00000000401e7950                EC_POINT_new
                0x00000000401e7a1e                EC_POINT_free
                0x00000000401e7a4c                EC_GROUP_free
                0x00000000401e7ab1                EC_POINT_clear_free
                0x00000000401e7af9                EC_GROUP_clear_free
                0x00000000401e7b85                EC_POINT_copy
                0x00000000401e7bf1                EC_GROUP_set_generator
                0x00000000401e7ce0                EC_GROUP_copy
                0x00000000401e7f0a                EC_GROUP_dup
                0x00000000401e7f60                EC_POINT_dup
                0x00000000401e7fb6                EC_POINT_method_of
                0x00000000401e7fbf                EC_POINT_set_to_infinity
                0x00000000401e8024                EC_POINT_set_Jprojective_coordinates_GFp
                0x00000000401e8089                EC_POINT_get_Jprojective_coordinates_GFp
                0x00000000401e80f1                EC_POINT_set_affine_coordinates_GFp
                0x00000000401e8159                EC_POINT_set_affine_coordinates_GF2m
                0x00000000401e81c1                EC_POINT_get_affine_coordinates_GFp
                0x00000000401e8229                EC_POINT_get_affine_coordinates_GF2m
                0x00000000401e8291                EC_POINT_set_compressed_coordinates_GFp
                0x00000000401e82f9                EC_POINT_set_compressed_coordinates_GF2m
                0x00000000401e8361                EC_POINT_point2oct
                0x00000000401e83c9                EC_POINT_oct2point
                0x00000000401e8431                EC_POINT_add
                0x00000000401e84a3                EC_POINT_dbl
                0x00000000401e8511                EC_POINT_invert
                0x00000000401e857b                EC_POINT_is_at_infinity
                0x00000000401e85e3                EC_POINT_is_on_curve
                0x00000000401e864b                EC_POINT_cmp
                0x00000000401e86b8                EC_GROUP_cmp
                0x00000000401e893d                EC_POINT_make_affine
                0x00000000401e89a5                EC_POINTs_make_affine
                0x00000000401e8a31                EC_POINTs_mul
                0x00000000401e8a61                EC_POINT_mul
                0x00000000401e8a99                EC_GROUP_precompute_mult
                0x00000000401e8ac6                EC_GROUP_have_precompute_mult
                0x00000000401e8efe                ec_wNAF_mul
                0x00000000401e9ddf                ec_wNAF_precompute_mult
                0x00000000401ea430                ec_wNAF_have_precompute_mult
                0x00000000401ea460                EC_POINT_point2bn
                0x00000000401ea526                EC_POINT_bn2point
                0x00000000401ea61f                EC_POINT_point2hex
                0x00000000401ea728                EC_POINT_hex2point
                0x00000000401ea798                ERR_load_ECDH_strings
                0x00000000401ea7d0                ECDH_compute_key
                0x00000000401ea875                ECDH_set_default_method
                0x00000000401ea882                ECDH_get_default_method
                0x00000000401ea939                ecdh_check
                0x00000000401ea999                ECDH_set_method
                0x00000000401ea9c3                ECDH_get_ex_new_index
                0x00000000401ea9e2                ECDH_set_ex_data
                0x00000000401eaa23                ECDH_get_ex_data
                0x00000000401eae11                ECDH_OpenSSL
                0x00000000401eae1c                ec_GFp_mont_field_set_to_one
                0x00000000401eae66                ec_GFp_mont_field_decode
                0x00000000401eaea9                ec_GFp_mont_field_encode
                0x00000000401eaef6                ec_GFp_mont_field_sqr
                0x00000000401eaf3f                ec_GFp_mont_field_mul
                0x00000000401eaf88                ec_GFp_mont_group_set_curve
                0x00000000401eb130                ec_GFp_mont_group_copy
                0x00000000401eb218                ec_GFp_mont_group_clear_finish
                0x00000000401eb26b                ec_GFp_mont_group_finish
                0x00000000401eb2be                ec_GFp_mont_group_init
                0x00000000401eb2ec                EC_GFp_mont_method
                0x00000000401eb300                ec_GFp_nist_field_sqr
                0x00000000401eb3db                ec_GFp_nist_field_mul
                0x00000000401eb4c4                ec_GFp_nist_group_set_curve
                0x00000000401eb64e                ec_GFp_nist_group_copy
                0x00000000401eb667                EC_GFp_nist_method
                0x00000000401eb680                ec_GFp_simple_is_at_infinity
                0x00000000401eb690                ec_GFp_simple_field_sqr
                0x00000000401eb6a8                ec_GFp_simple_field_mul
                0x00000000401eb6c3                ec_GFp_simple_point_copy
                0x00000000401eb728                ec_GFp_simple_group_copy
                0x00000000401eb79f                ec_GFp_simple_point_set_to_infinity
                0x00000000401eb7bf                ec_GFp_simple_get_Jprojective_coordinates_GFp
                0x00000000401eb946                ec_GFp_simple_group_get_curve
                0x00000000401ebab5                ec_GFp_simple_point_clear_finish
                0x00000000401ebaea                ec_GFp_simple_group_clear_finish
                0x00000000401ebb1e                ec_GFp_simple_points_make_affine
                0x00000000401ec08e                ec_GFp_simple_point_get_affine_coordinates
                0x00000000401ec3cd                ec_GFp_simple_make_affine
                0x00000000401ec4e4                ec_GFp_simple_cmp
                0x00000000401ec797                ec_GFp_simple_is_on_curve
                0x00000000401eca9f                ec_GFp_simple_invert
                0x00000000401ecae8                ec_GFp_simple_dbl
                0x00000000401ecf94                ec_GFp_simple_add
                0x00000000401ed59b                ec_GFp_simple_group_get_degree
                0x00000000401ed5aa                ec_GFp_simple_oct2point
                0x00000000401ed937                ec_GFp_simple_point2oct
                0x00000000401edcb6                ec_GFp_simple_set_Jprojective_coordinates_GFp
                0x00000000401ede9c                ec_GFp_simple_set_compressed_coordinates
                0x00000000401ee328                ec_GFp_simple_point_set_affine_coordinates
                0x00000000401ee3b5                ec_GFp_simple_point_finish
                0x00000000401ee3e3                ec_GFp_simple_group_finish
                0x00000000401ee417                ec_GFp_simple_point_init
                0x00000000401ee451                ec_GFp_simple_group_init
                0x00000000401ee494                ec_GFp_simple_group_check_discriminant
                0x00000000401ee6c5                ec_GFp_simple_group_set_curve
                0x00000000401ee8bd                EC_GFp_simple_method
                0x00000000401ee8c8                ERR_load_ECDSA_strings
                0x00000000401ee939                ECDSA_set_default_method
                0x00000000401ee946                ECDSA_get_default_method
                0x00000000401ee9fd                ecdsa_check
                0x00000000401eea5d                ECDSA_set_method
                0x00000000401eea87                ECDSA_size
                0x00000000401eeb49                ECDSA_get_ex_new_index
                0x00000000401eeb68                ECDSA_set_ex_data
                0x00000000401eeba9                ECDSA_get_ex_data
                0x00000000401ef8db                ECDSA_OpenSSL
                0x00000000401ef8e8                ECDSA_do_sign_ex
                0x00000000401ef954                ECDSA_do_sign
                0x00000000401ef96c                ECDSA_sign_ex
                0x00000000401ef9f8                ECDSA_sign
                0x00000000401efa1a                ECDSA_sign_setup
                0x00000000401efa78                ECDSA_do_verify
                0x00000000401efad6                ECDSA_verify
                0x00000000401efb60                EVP_EncodeInit
                0x00000000401efb7a                EVP_EncodeBlock
                0x00000000401efcb5                EVP_EncodeFinal
                0x00000000401efd12                EVP_EncodeUpdate
                0x00000000401efe42                EVP_DecodeInit
                0x00000000401efe63                EVP_DecodeBlock
                0x00000000401effc5                EVP_DecodeUpdate
                0x00000000401f029f                EVP_DecodeFinal
                0x00000000401f0300                EVP_set_pw_prompt
                0x00000000401f032d                EVP_get_pw_prompt
                0x00000000401f0348                EVP_read_pw_string_min
                0x00000000401f0422                EVP_read_pw_string
                0x00000000401f043a                EVP_BytesToKey
                0x00000000401f0705                EVP_PBE_alg_add_type
                0x00000000401f07c5                EVP_PBE_alg_add
                0x00000000401f0835                EVP_PBE_find
                0x00000000401f08fc                EVP_PBE_CipherInit
                0x00000000401f0ad6                EVP_PBE_cleanup
                0x00000000401f0b00                EVP_PKCS82PKEY
                0x00000000401f0c3b                EVP_PKEY2PKCS8_broken
                0x00000000401f0d43                EVP_PKEY2PKCS8
                0x00000000401f0d53                PKCS8_set_broken
                0x00000000401f0da5                EVP_PKEY_get_attr_count
                0x00000000401f0db4                EVP_PKEY_get_attr_by_NID
                0x00000000401f0dc3                EVP_PKEY_get_attr_by_OBJ
                0x00000000401f0dd2                EVP_PKEY_get_attr
                0x00000000401f0de1                EVP_PKEY_delete_attr
                0x00000000401f0df0                EVP_PKEY_add1_attr
                0x00000000401f0e08                EVP_PKEY_add1_attr_by_OBJ
                0x00000000401f0e20                EVP_PKEY_add1_attr_by_NID
                0x00000000401f0e38                EVP_PKEY_add1_attr_by_txt
                0x00000000401f0e50                HMAC_Init_ex
                0x00000000401f1084                HMAC_Update
                0x00000000401f1093                HMAC_Final
                0x00000000401f1128                HMAC_CTX_init
                0x00000000401f1156                HMAC_Init
                0x00000000401f11b2                HMAC_CTX_copy
                0x00000000401f1248                HMAC_CTX_cleanup
                0x00000000401f1288                HMAC
                0x00000000401f1359                HMAC_CTX_set_flags
                0x00000000401f13a0                i2d_PrivateKey
                0x00000000401f1d90                RAND_SSLeay
                0x00000000401f1dc4                d2i_NETSCAPE_CERT_SEQUENCE
                0x00000000401f1dd4                i2d_NETSCAPE_CERT_SEQUENCE
                0x00000000401f1de4                NETSCAPE_CERT_SEQUENCE_new
                0x00000000401f1df4                NETSCAPE_CERT_SEQUENCE_free
                0x00000000401f1e04                OPENSSL_gmtime
                0x00000000401f1e0f                OPENSSL_gmtime_adj
                0x00000000401f20b8                PKCS12_PBE_add
                0x00000000401f20be                PKCS12_PBE_keyivgen
                0x00000000401f22cc                PKCS12_key_gen_uni
                0x00000000401f27e9                PKCS12_key_gen_asc
                0x00000000401f28c8                PKCS8_decrypt
                0x00000000401f28ec                OPENSSL_asc2uni
                0x00000000401f297b                OPENSSL_uni2asc
                0x00000000401f29fc                i2d_PKCS12_bio
                0x00000000401f2a12                d2i_PKCS12_bio
                0x00000000401f2a28                PKCS12_x5092certbag
                0x00000000401f2a42                PKCS12_x509crl2certbag
                0x00000000401f2a5c                PKCS12_certbag2x509
                0x00000000401f2ab3                PKCS12_certbag2x509crl
                0x00000000401f2b0c                PKCS5_PBE_add
                0x00000000401f2b12                PKCS5_PBE_keyivgen
                0x00000000401f2df4                PKCS5_PBKDF2_HMAC
                0x00000000401f3014                PKCS5_PBKDF2_HMAC_SHA1
                0x00000000401f3082                PKCS5_v2_PBE_keyivgen
                0x00000000401f3484                d2i_PBEPARAM
                0x00000000401f3494                i2d_PBEPARAM
                0x00000000401f34a4                PBEPARAM_new
                0x00000000401f34b4                PBEPARAM_free
                0x00000000401f34c4                PKCS5_pbe_set0_algor
                0x00000000401f367f                PKCS5_pbe_set
                0x00000000401f3714                d2i_PBE2PARAM
                0x00000000401f3724                i2d_PBE2PARAM
                0x00000000401f3734                PBE2PARAM_new
                0x00000000401f3744                PBE2PARAM_free
                0x00000000401f3754                d2i_PBKDF2PARAM
                0x00000000401f3764                i2d_PBKDF2PARAM
                0x00000000401f3774                PBKDF2PARAM_new
                0x00000000401f3784                PBKDF2PARAM_free
                0x00000000401f3794                PKCS5_pbe2_set_iv
                0x00000000401f3cad                PKCS5_pbe2_set
                0x00000000401f3cf0                d2i_PKCS8_PRIV_KEY_INFO
                0x00000000401f3d00                i2d_PKCS8_PRIV_KEY_INFO
                0x00000000401f3d10                PKCS8_PRIV_KEY_INFO_new
                0x00000000401f3d20                PKCS8_PRIV_KEY_INFO_free
                0x00000000401f3d30                PKCS8_pkey_set0
                0x00000000401f3dfb                PKCS8_pkey_get0
                0x00000000401f3e90                EVP_SignFinal
                0x00000000401f4070                EVP_VerifyFinal
                0x00000000401f4261                policy_cache_free
                0x00000000401f42a1                policy_cache_set
                0x00000000401f45f5                policy_cache_find_data
                0x00000000401f4630                policy_data_free
                0x00000000401f4675                policy_data_new
                0x00000000401f4774                policy_cache_set_mapping
                0x00000000401f49de                X509_policy_tree_free
                0x00000000401f4a8a                X509_policy_check
                0x00000000401f54f8                d2i_PKCS8PrivateKey_bio
                0x00000000401f560c                PEM_read_bio_PKCS8
                0x00000000401f562d                PEM_write_bio_PKCS8
                0x00000000401f5671                PEM_read_bio_PKCS8_PRIV_KEY_INFO
                0x00000000401f5692                PEM_write_bio_PKCS8_PRIV_KEY_INFO
                0x00000000401f58d8                i2d_PKCS8PrivateKey_nid_bio
                0x00000000401f5909                i2d_PKCS8PrivateKey_bio
                0x00000000401f593a                PEM_write_bio_PKCS8PrivateKey
                0x00000000401f596b                PEM_write_bio_PKCS8PrivateKey_nid
                0x00000000401f599c                PKCS7_add_attrib_smimecap
                0x00000000401f5a1f                PKCS7_get_smimecap
                0x00000000401f5a6e                PKCS7_simple_smimecap
                0x00000000401f5bb4                PKCS7_add_attrib_content_type
                0x00000000401f5c13                PKCS7_add0_attrib_signing_time
                0x00000000401f5c76                PKCS7_add1_attrib_digest
                0x00000000401f75f2                RSA_PKCS1_SSLeay
                0x00000000401f7600                RSA_padding_add_none
                0x00000000401f766c                RSA_padding_check_none
                0x00000000401f76f4                PKCS1_MGF1
                0x00000000401f78e9                RSA_padding_check_PKCS1_OAEP
                0x00000000401f7b6d                RSA_padding_add_PKCS1_OAEP
                0x00000000401f7d70                RSA_padding_add_PKCS1_type_1
                0x00000000401f7e0b                RSA_padding_check_PKCS1_type_1
                0x00000000401f7f54                RSA_padding_add_PKCS1_type_2
                0x00000000401f8015                RSA_padding_check_PKCS1_type_2
                0x00000000401f8130                RSA_verify_PKCS1_PSS
                0x00000000401f84e3                RSA_padding_add_PKCS1_PSS
                0x00000000401f87bc                RSA_padding_add_SSLv23
                0x00000000401f8890                RSA_padding_check_SSLv23
                0x00000000401f89f0                RSA_padding_add_X931
                0x00000000401f8aa6                RSA_padding_check_X931
                0x00000000401f8bc2                RSA_X931_hash_id
                0x00000000401f8c04                ASN1_bn_print
                0x00000000401f8e00                X509_ocspid_print
                0x00000000401f8f88                X509_signature_print
                0x00000000401f908a                ASN1_STRING_print
                0x00000000401f9143                ASN1_GENERALIZEDTIME_print
                0x00000000401f93f8                ASN1_UTCTIME_print
                0x00000000401f9564                ASN1_TIME_print
                0x00000000401f959d                X509_print_ex
                0x00000000401f9ae1                X509_print
                0x00000000401f9af6                X509_NAME_print
                0x00000000401f9bec                X509_CERT_AUX_print
                0x00000000401fa18c                UI_free
                0x00000000401fa1cb                UI_add_input_string
                0x00000000401fa1fc                UI_dup_input_string
                0x00000000401fa2a4                UI_add_verify_string
                0x00000000401fa2d5                UI_dup_verify_string
                0x00000000401fa37d                UI_add_input_boolean
                0x00000000401fa3a7                UI_dup_input_boolean
                0x00000000401fa54f                UI_add_info_string
                0x00000000401fa58c                UI_dup_info_string
                0x00000000401fa613                UI_add_error_string
                0x00000000401fa650                UI_dup_error_string
                0x00000000401fa6d7                UI_construct_prompt
                0x00000000401fa807                UI_add_user_data
                0x00000000401fa815                UI_get0_user_data
                0x00000000401fa81f                UI_process
                0x00000000401fa954                UI_ctrl
                0x00000000401fa9e1                UI_get_ex_new_index
                0x00000000401faa00                UI_set_ex_data
                0x00000000401faa0f                UI_get_ex_data
                0x00000000401faa1e                UI_set_default_method
                0x00000000401faa2b                UI_get_default_method
                0x00000000401faa4e                UI_new_method
                0x00000000401faadd                UI_new
                0x00000000401faaed                UI_get_method
                0x00000000401faaf6                UI_set_method
                0x00000000401fab02                UI_create_method
                0x00000000401fab5b                UI_destroy_method
                0x00000000401fab85                UI_method_set_opener
                0x00000000401faba0                UI_method_set_writer
                0x00000000401fabbb                UI_method_set_flusher
                0x00000000401fabd6                UI_method_set_reader
                0x00000000401fabf1                UI_method_set_closer
                0x00000000401fac0c                UI_method_set_prompt_constructor
                0x00000000401fac27                UI_method_get_opener
                0x00000000401fac3d                UI_method_get_writer
                0x00000000401fac53                UI_method_get_flusher
                0x00000000401fac69                UI_method_get_reader
                0x00000000401fac7f                UI_method_get_closer
                0x00000000401fac95                UI_method_get_prompt_constructor
                0x00000000401facab                UI_get_string_type
                0x00000000401facbd                UI_get_input_flags
                0x00000000401facd0                UI_get0_output_string
                0x00000000401face6                UI_get0_action_string
                0x00000000401fad0f                UI_get0_result_string
                0x00000000401fad34                UI_get0_result
                0x00000000401fadc6                UI_get0_test_string
                0x00000000401fade6                UI_get_result_minsize
                0x00000000401fae0a                UI_get_result_maxsize
                0x00000000401fae2e                UI_set_result
                0x00000000401fb324                UI_OpenSSL
                0x00000000401fb330                d2i_AUTHORITY_KEYID
                0x00000000401fb340                i2d_AUTHORITY_KEYID
                0x00000000401fb350                AUTHORITY_KEYID_new
                0x00000000401fb360                AUTHORITY_KEYID_free
                0x00000000401fb603                POLICYINFO_free
                0x00000000401fb613                d2i_CERTIFICATEPOLICIES
                0x00000000401fb623                i2d_CERTIFICATEPOLICIES
                0x00000000401fb633                CERTIFICATEPOLICIES_new
                0x00000000401fb643                CERTIFICATEPOLICIES_free
                0x00000000401fb653                d2i_POLICYINFO
                0x00000000401fb663                i2d_POLICYINFO
                0x00000000401fb673                POLICYINFO_new
                0x00000000401fb683                d2i_POLICYQUALINFO
                0x00000000401fb693                i2d_POLICYQUALINFO
                0x00000000401fb6a3                POLICYQUALINFO_new
                0x00000000401fb6b3                POLICYQUALINFO_free
                0x00000000401fb6c3                d2i_USERNOTICE
                0x00000000401fb6d3                i2d_USERNOTICE
                0x00000000401fb6e3                USERNOTICE_new
                0x00000000401fb6f3                USERNOTICE_free
                0x00000000401fb703                d2i_NOTICEREF
                0x00000000401fb713                i2d_NOTICEREF
                0x00000000401fb723                NOTICEREF_new
                0x00000000401fc068                NOTICEREF_free
                0x00000000401fc078                X509_POLICY_NODE_print
                0x00000000401fc6b0                DIST_POINT_free
                0x00000000401fc6c0                d2i_DIST_POINT_NAME
                0x00000000401fc6d0                i2d_DIST_POINT_NAME
                0x00000000401fc6e0                DIST_POINT_NAME_new
                0x00000000401fc8fa                DIST_POINT_NAME_free
                0x00000000401fc90a                d2i_DIST_POINT
                0x00000000401fc91a                i2d_DIST_POINT
                0x00000000401fc92a                DIST_POINT_new
                0x00000000401fcbcd                d2i_CRL_DIST_POINTS
                0x00000000401fcbdd                i2d_CRL_DIST_POINTS
                0x00000000401fcbed                CRL_DIST_POINTS_new
                0x00000000401fcbfd                CRL_DIST_POINTS_free
                0x00000000401fcc0d                d2i_ISSUING_DIST_POINT
                0x00000000401fcc1d                i2d_ISSUING_DIST_POINT
                0x00000000401fcc2d                ISSUING_DIST_POINT_new
                0x00000000401fcc3d                ISSUING_DIST_POINT_free
                0x00000000401fce4a                DIST_POINT_set_dpname
                0x00000000401fcf38                i2d_GENERAL_NAME
                0x00000000401fcf48                d2i_GENERAL_NAME
                0x00000000401fcf58                d2i_OTHERNAME
                0x00000000401fcf68                i2d_OTHERNAME
                0x00000000401fcf78                OTHERNAME_new
                0x00000000401fcf88                OTHERNAME_free
                0x00000000401fcf98                d2i_EDIPARTYNAME
                0x00000000401fcfa8                i2d_EDIPARTYNAME
                0x00000000401fcfb8                EDIPARTYNAME_new
                0x00000000401fcfc8                EDIPARTYNAME_free
                0x00000000401fcfd8                GENERAL_NAME_new
                0x00000000401fcfe8                GENERAL_NAME_free
                0x00000000401fcff8                d2i_GENERAL_NAMES
                0x00000000401fd008                i2d_GENERAL_NAMES
                0x00000000401fd018                GENERAL_NAMES_new
                0x00000000401fd028                GENERAL_NAMES_free
                0x00000000401fd038                GENERAL_NAME_dup
                0x00000000401fd050                OTHERNAME_cmp
                0x00000000401fd09e                GENERAL_NAME_cmp
                0x00000000401fd126                GENERAL_NAME_set0_value
                0x00000000401fd15e                GENERAL_NAME_get0_value
                0x00000000401fd1a2                GENERAL_NAME_set0_othername
                0x00000000401fd1f8                GENERAL_NAME_get0_otherName
                0x00000000401fd85e                GENERAL_SUBTREE_new
                0x00000000401fd86e                GENERAL_SUBTREE_free
                0x00000000401fd87e                NAME_CONSTRAINTS_new
                0x00000000401fd88e                NAME_CONSTRAINTS_free
                0x00000000401fda2c                NAME_CONSTRAINTS_check
                0x00000000401fdb5e                POLICY_CONSTRAINTS_new
                0x00000000401fdb6e                POLICY_CONSTRAINTS_free
                0x00000000401fdd73                POLICY_MAPPING_free
                0x00000000401fdd83                POLICY_MAPPING_new
                0x00000000401fe027                X509V3_EXT_val_prn
                0x00000000401fe14e                X509V3_EXT_print
                0x00000000401fe32a                X509V3_extensions_print
                0x00000000401fe831                X509_PURPOSE_get_count
                0x00000000401fe850                X509_PURPOSE_get0
                0x00000000401fe886                X509_PURPOSE_get_by_sname
                0x00000000401fe8c6                X509_PURPOSE_get_by_id
                0x00000000401fe906                X509_PURPOSE_set
                0x00000000401fe960                X509_PURPOSE_add
                0x00000000401feb29                X509_PURPOSE_cleanup
                0x00000000401feb78                X509_PURPOSE_get_id
                0x00000000401feb80                X509_PURPOSE_get0_name
                0x00000000401feb8a                X509_PURPOSE_get0_sname
                0x00000000401feb94                X509_PURPOSE_get_trust
                0x00000000401feb9d                X509_supported_extension
                0x00000000401ff10e                X509_check_purpose
                0x00000000401ff1a8                X509_check_ca
                0x00000000401ff203                X509_check_akid
                0x00000000401ff2e0                X509_check_issued
                0x00000000401ff4c0                X509V3_conf_free
                0x00000000401ff5b9                X509V3_add_value
                0x00000000401ff6ea                X509V3_add_value_uchar
                0x00000000401ff6f5                X509V3_add_value_bool
                0x00000000401ff715                X509V3_add_value_bool_nf
                0x00000000401ff72e                i2s_ASN1_ENUMERATED
                0x00000000401ff7a8                i2s_ASN1_INTEGER
                0x00000000401ff822                s2i_ASN1_INTEGER
                0x00000000401ff95f                X509V3_add_value_int
                0x00000000401ff9c7                X509V3_get_value_bool
                0x00000000401ffb3e                X509V3_get_value_int
                0x00000000401ffbaf                X509V3_parse_list
                0x00000000401ffde2                hex_to_string
                0x00000000401ffea9                string_to_hex
                0x0000000040200066                name_cmp
                0x00000000402000c5                X509_email_free
                0x0000000040200231                X509_REQ_get1_email
                0x00000000402002a7                X509_get1_email
                0x0000000040200301                X509_get1_ocsp
                0x00000000402003a0                a2i_ipadd
                0x0000000040200511                a2i_IPADDRESS_NC
                0x0000000040200601                a2i_IPADDRESS
                0x000000004020065d                X509V3_NAME_from_section
                0x0000000040200750                X509at_get_attr_count
                0x000000004020075b                X509at_get_attr_by_OBJ
                0x00000000402007c9                X509at_get_attr_by_NID
                0x0000000040200808                X509at_get_attr
                0x0000000040200853                X509at_delete_attr
                0x000000004020089e                X509at_add1_attr
                0x0000000040200979                X509_ATTRIBUTE_set1_object
                0x00000000402009c2                X509_ATTRIBUTE_set1_data
                0x0000000040200b4a                X509_ATTRIBUTE_create_by_OBJ
                0x0000000040200c1e                X509_ATTRIBUTE_create_by_txt
                0x0000000040200cd6                X509at_add1_attr_by_txt
                0x0000000040200d2c                X509_ATTRIBUTE_create_by_NID
                0x0000000040200dc6                X509at_add1_attr_by_NID
                0x0000000040200e1c                X509at_add1_attr_by_OBJ
                0x0000000040200e72                X509_ATTRIBUTE_count
                0x0000000040200e94                X509_ATTRIBUTE_get0_object
                0x0000000040200ea9                X509_ATTRIBUTE_get0_type
                0x0000000040200f00                X509_ATTRIBUTE_get0_data
                0x0000000040200f66                X509at_get0_data_by_OBJ
                0x0000000040201014                X509_CRL_get_ext_count
                0x0000000040201026                X509_CRL_get_ext_by_NID
                0x0000000040201038                X509_CRL_get_ext_by_OBJ
                0x000000004020104a                X509_CRL_get_ext_by_critical
                0x000000004020105c                X509_CRL_get_ext
                0x000000004020106e                X509_CRL_delete_ext
                0x0000000040201080                X509_CRL_get_ext_d2i
                0x0000000040201092                X509_CRL_add1_ext_i2d
                0x00000000402010a4                X509_CRL_add_ext
                0x00000000402010bf                X509_get_ext_count
                0x00000000402010d1                X509_get_ext_by_NID
                0x00000000402010e3                X509_get_ext_by_OBJ
                0x00000000402010f5                X509_get_ext_by_critical
                0x0000000040201107                X509_get_ext
                0x0000000040201119                X509_delete_ext
                0x000000004020112b                X509_add_ext
                0x0000000040201146                X509_get_ext_d2i
                0x0000000040201158                X509_add1_ext_i2d
                0x000000004020116a                X509_REVOKED_get_ext_count
                0x0000000040201179                X509_REVOKED_get_ext_by_NID
                0x0000000040201188                X509_REVOKED_get_ext_by_OBJ
                0x0000000040201197                X509_REVOKED_get_ext_by_critical
                0x00000000402011a6                X509_REVOKED_get_ext
                0x00000000402011b5                X509_REVOKED_delete_ext
                0x00000000402011c4                X509_REVOKED_add_ext
                0x00000000402011dc                X509_REVOKED_get_ext_d2i
                0x00000000402011eb                X509_REVOKED_add1_ext_i2d
                0x000000004020136e                X509_LOOKUP_new
                0x00000000402013dd                X509_LOOKUP_free
                0x0000000040201411                X509_LOOKUP_init
                0x0000000040201432                X509_LOOKUP_shutdown
                0x0000000040201453                X509_LOOKUP_ctrl
                0x000000004020147a                X509_LOOKUP_by_subject
                0x00000000402014a1                X509_LOOKUP_by_issuer_serial
                0x00000000402014c1                X509_LOOKUP_by_fingerprint
                0x00000000402014e1                X509_LOOKUP_by_alias
                0x0000000040201501                X509_STORE_new
                0x00000000402015f9                X509_STORE_free
                0x0000000040201689                X509_STORE_add_lookup
                0x0000000040201711                X509_OBJECT_up_ref_count
                0x000000004020176b                X509_OBJECT_free_contents
                0x0000000040201793                X509_OBJECT_idx_by_subject
                0x00000000402017a3                X509_OBJECT_retrieve_by_subject
                0x00000000402017cf                X509_STORE_get_by_subject
                0x00000000402018e3                X509_STORE_get1_certs
                0x0000000040201ab5                X509_STORE_get1_crls
                0x0000000040201c78                X509_OBJECT_retrieve_match
                0x0000000040201d4b                X509_STORE_add_crl
                0x0000000040201e5f                X509_STORE_add_cert
                0x0000000040201f73                X509_STORE_CTX_get1_issuer
                0x0000000040202139                X509_STORE_set_flags
                0x0000000040202148                X509_STORE_set_depth
                0x000000004020215c                X509_STORE_set_purpose
                0x000000004020216b                X509_STORE_set_trust
                0x000000004020217a                X509_STORE_set1_param
                0x0000000040202189                X509_STORE_set_verify_cb
                0x00000000402021a0                X509_to_X509_REQ
                0x00000000402022ac                X509_REQ_get_pubkey
                0x00000000402022d4                X509_REQ_check_private_key
                0x0000000040202409                X509_REQ_extension_nid
                0x0000000040202448                X509_REQ_get_extension_nids
                0x0000000040202455                X509_REQ_set_extension_nids
                0x0000000040202462                X509_REQ_add_extensions_nid
                0x0000000040202585                X509_REQ_add_extensions
                0x0000000040202595                X509_REQ_get_attr_count
                0x00000000402025a7                X509_REQ_get_attr_by_NID
                0x00000000402025b9                X509_REQ_get_attr_by_OBJ
                0x00000000402025cb                X509_REQ_get_attr
                0x00000000402025dd                X509_REQ_get_extensions
                0x00000000402026df                X509_REQ_delete_attr
                0x00000000402026f1                X509_REQ_add1_attr
                0x000000004020270c                X509_REQ_add1_attr_by_OBJ
                0x0000000040202727                X509_REQ_add1_attr_by_NID
                0x0000000040202742                X509_REQ_add1_attr_by_txt
                0x00000000402028e5                X509_TRUST_set_default
                0x00000000402028f9                X509_TRUST_get_count
                0x0000000040202918                X509_TRUST_get0
                0x000000004020294c                X509_TRUST_get_by_id
                0x000000004020298c                X509_check_trust
                0x00000000402029ef                X509_TRUST_set
                0x0000000040202a49                X509_TRUST_add
                0x0000000040202bf5                X509_TRUST_cleanup
                0x0000000040202c41                X509_TRUST_get_flags
                0x0000000040202c4a                X509_TRUST_get0_name
                0x0000000040202c54                X509_TRUST_get_trust
                0x0000000040202c60                X509v3_get_ext_count
                0x0000000040202c75                X509v3_get_ext_by_OBJ
                0x0000000040202ce3                X509v3_get_ext_by_NID
                0x0000000040202d22                X509v3_get_ext_by_critical
                0x0000000040202d98                X509v3_get_ext
                0x0000000040202de3                X509v3_delete_ext
                0x0000000040202e2e                X509v3_add_ext
                0x0000000040202f33                X509_EXTENSION_set_object
                0x0000000040202f7c                X509_EXTENSION_set_critical
                0x0000000040202f9b                X509_EXTENSION_set_data
                0x0000000040202fc5                X509_EXTENSION_create_by_OBJ
                0x000000004020309f                X509_EXTENSION_create_by_NID
                0x000000004020312b                X509_EXTENSION_get_object
                0x0000000040203140                X509_EXTENSION_get_data
                0x0000000040203156                X509_EXTENSION_get_critical
                0x0000000040203170                X509_NAME_entry_count
                0x0000000040203188                X509_NAME_get_index_by_OBJ
                0x00000000402031fb                X509_NAME_get_index_by_NID
                0x000000004020323a                X509_NAME_get_entry
                0x0000000040203288                X509_NAME_delete_entry
                0x0000000040203354                X509_NAME_add_entry
                0x00000000402034c8                X509_NAME_ENTRY_set_object
                0x0000000040203534                X509_NAME_ENTRY_set_data
                0x0000000040203619                X509_NAME_ENTRY_create_by_OBJ
                0x00000000402036cc                X509_NAME_ENTRY_create_by_NID
                0x0000000040203762                X509_NAME_add_entry_by_NID
                0x00000000402037c9                X509_NAME_ENTRY_create_by_txt
                0x0000000040203881                X509_NAME_add_entry_by_txt
                0x00000000402038e8                X509_NAME_add_entry_by_OBJ
                0x000000004020394f                X509_NAME_ENTRY_get_object
                0x0000000040203964                X509_NAME_ENTRY_get_data
                0x000000004020397a                X509_NAME_get_text_by_OBJ
                0x00000000402039fc                X509_NAME_get_text_by_NID
                0x0000000040203a4c                X509_REQ_set_version
                0x0000000040203a68                X509_REQ_set_subject_name
                0x0000000040203a89                X509_REQ_set_pubkey
                0x0000000040203aac                d2i_X509_VAL
                0x0000000040203abc                i2d_X509_VAL
                0x0000000040203acc                X509_VAL_new
                0x0000000040203adc                X509_VAL_free
                0x0000000040203af0                CRYPTO_cbc128_encrypt
                0x0000000040203c3b                CRYPTO_cbc128_decrypt
                0x0000000040203f84                CRYPTO_cfb128_encrypt
                0x0000000040204235                CRYPTO_cfb128_1_encrypt
                0x00000000402042ff                CRYPTO_cfb128_8_encrypt
                0x000000004020436c                CRYPTO_ofb128_encrypt
                0x0000000040204498                i2d_ASN1_BOOLEAN
                0x0000000040204512                d2i_ASN1_BOOLEAN
                0x0000000040204850                ASN1_mbstring_ncopy
                0x0000000040204d55                ASN1_mbstring_copy
                0x0000000040204d80                ASN1_PRINTABLE_type
                0x0000000040204e41                ASN1_UNIVERSALSTRING_to_string
                0x0000000040204f2f                ASN1_STRING_set_default_mask
                0x0000000040204f3c                ASN1_STRING_get_default_mask
                0x0000000040204f49                ASN1_STRING_set_default_mask_asc
                0x000000004020500c                ASN1_STRING_TABLE_get
                0x0000000040205072                ASN1_STRING_set_by_NID
                0x0000000040205131                ASN1_STRING_TABLE_add
                0x0000000040205266                ASN1_STRING_TABLE_cleanup
                0x0000000040205290                ASN1_seq_unpack
                0x00000000402052f5                ASN1_seq_pack
                0x00000000402053f3                ASN1_unpack_string
                0x0000000040205446                ASN1_pack_string
                0x0000000040205548                ASN1_item_pack
                0x0000000040205641                ASN1_item_unpack
                0x0000000040205698                BN_mod_exp2_mont
                0x0000000040205f24                BN_kronecker
                0x000000004020624a                BN_get0_nist_prime_192
                0x0000000040206255                BN_get0_nist_prime_224
                0x0000000040206260                BN_get0_nist_prime_256
                0x000000004020626b                BN_get0_nist_prime_384
                0x0000000040206276                BN_get0_nist_prime_521
                0x0000000040206281                BN_nist_mod_192
                0x00000000402064ef                BN_nist_mod_224
                0x0000000040206835                BN_nist_mod_256
                0x0000000040206ccd                BN_nist_mod_384
                0x000000004020726d                BN_nist_mod_521
                0x0000000040207450                BN_mod_sqrt
                0x0000000040207dfb                CONF_modules_load
                0x000000004020827c                CONF_modules_finish
                0x00000000402082f6                CONF_modules_unload
                0x00000000402083ac                CONF_module_add
                0x00000000402083ce                CONF_modules_free
                0x00000000402083e3                CONF_imodule_get_name
                0x00000000402083ed                CONF_imodule_get_value
                0x00000000402083f7                CONF_imodule_get_usr_data
                0x0000000040208401                CONF_imodule_set_usr_data
                0x000000004020840b                CONF_imodule_get_module
                0x0000000040208414                CONF_imodule_get_flags
                0x000000004020841e                CONF_imodule_set_flags
                0x0000000040208428                CONF_module_get_usr_data
                0x0000000040208432                CONF_module_set_usr_data
                0x000000004020843c                CONF_get1_default_config_file
                0x00000000402084b7                CONF_modules_load_file
                0x0000000040208591                CONF_parse_list
                0x00000000402086a0                DSO_set_default_method
                0x00000000402086ad                DSO_get_default_method
                0x00000000402086ba                DSO_get_method
                0x00000000402086c3                DSO_set_method
                0x00000000402086cf                DSO_new_method
                0x00000000402087c2                DSO_new
                0x00000000402087d2                DSO_free
                0x00000000402088e8                DSO_flags
                0x00000000402088fb                DSO_up_ref
                0x000000004020894d                DSO_bind_var
                0x00000000402089eb                DSO_bind_func
                0x0000000040208a89                DSO_ctrl
                0x0000000040208b21                DSO_set_name_converter
                0x0000000040208b65                DSO_get_filename
                0x0000000040208b98                DSO_set_filename
                0x0000000040208c95                DSO_load
                0x0000000040208e44                DSO_merge
                0x0000000040208ea7                DSO_convert_filename
                0x0000000040208fb7                DSO_get_loaded_filename
                0x0000000040208fea                DSO_pathbyaddr
                0x000000004020905e                DSO_global_lookup
                0x00000000402090b8                DSO_METHOD_openssl
                0x00000000402090d0                ec_GF2m_simple_is_at_infinity
                0x00000000402090e0                ec_GF2m_simple_points_make_affine
                0x0000000040209149                ec_GF2m_simple_field_div
                0x0000000040209164                ec_GF2m_simple_field_sqr
                0x000000004020917f                ec_GF2m_simple_field_mul
                0x000000004020919d                ec_GF2m_simple_point_copy
                0x0000000040209202                ec_GF2m_simple_group_get_curve
                0x000000004020928a                ec_GF2m_simple_point_set_to_infinity
                0x00000000402092aa                ec_GF2m_simple_make_affine
                0x00000000402093be                ec_GF2m_simple_cmp
                0x000000004020955b                ec_GF2m_simple_is_on_curve
                0x00000000402096f9                ec_GF2m_simple_invert
                0x0000000040209763                ec_GF2m_simple_add
                0x0000000040209b7a                ec_GF2m_simple_dbl
                0x0000000040209b8b                ec_GF2m_simple_oct2point
                0x0000000040209f4b                ec_GF2m_simple_group_get_degree
                0x0000000040209f5d                ec_GF2m_simple_point2oct
                0x000000004020a30e                ec_GF2m_simple_group_check_discriminant
                0x000000004020a3e5                ec_GF2m_simple_set_compressed_coordinates
                0x000000004020a679                ec_GF2m_simple_point_get_affine_coordinates
                0x000000004020a76d                ec_GF2m_simple_point_set_affine_coordinates
                0x000000004020a84d                ec_GF2m_simple_point_clear_finish
                0x000000004020a882                ec_GF2m_simple_group_clear_finish
                0x000000004020a8f2                ec_GF2m_simple_point_finish
                0x000000004020a920                ec_GF2m_simple_group_finish
                0x000000004020a954                ec_GF2m_simple_point_init
                0x000000004020a987                ec_GF2m_simple_group_init
                0x000000004020a9c0                ec_GF2m_simple_group_set_curve
                0x000000004020ab6e                ec_GF2m_simple_group_copy
                0x000000004020ad0d                EC_GF2m_simple_method
                0x000000004020ad18                d2i_ECDSA_SIG
                0x000000004020ad28                i2d_ECDSA_SIG
                0x000000004020ad38                ECDSA_SIG_new
                0x000000004020ad48                ECDSA_SIG_free
                0x000000004020ad6e                ERR_print_errors_cb
                0x000000004020ae5e                ERR_print_errors
                0x000000004020ae74                PKCS12_item_pack_safebag
                0x000000004020af70                PKCS12_MAKE_KEYBAG
                0x000000004020afcf                PKCS12_MAKE_SHKEYBAG
                0x000000004020b0c0                PKCS12_pack_p7data
                0x000000004020b184                PKCS12_unpack_p7data
                0x000000004020b1d9                PKCS12_pack_p7encdata
                0x000000004020b37a                PKCS12_unpack_p7encdata
                0x000000004020b3e4                PKCS12_decrypt_skey
                0x000000004020b3f3                PKCS12_pack_authsafes
                0x000000004020b41a                PKCS12_unpack_authsafes
                0x000000004020b478                d2i_PKCS12
                0x000000004020b488                i2d_PKCS12
                0x000000004020b498                PKCS12_new
                0x000000004020b4a8                PKCS12_free
                0x000000004020b4b8                d2i_PKCS12_MAC_DATA
                0x000000004020b4c8                i2d_PKCS12_MAC_DATA
                0x000000004020b4d8                PKCS12_MAC_DATA_new
                0x000000004020b4e8                PKCS12_MAC_DATA_free
                0x000000004020b4f8                d2i_PKCS12_BAGS
                0x000000004020b508                i2d_PKCS12_BAGS
                0x000000004020b518                PKCS12_BAGS_new
                0x000000004020b528                PKCS12_BAGS_free
                0x000000004020b538                d2i_PKCS12_SAFEBAG
                0x000000004020b548                i2d_PKCS12_SAFEBAG
                0x000000004020b558                PKCS12_SAFEBAG_new
                0x000000004020b568                PKCS12_SAFEBAG_free
                0x000000004020b578                PKCS12_pbe_crypt
                0x000000004020b6f8                PKCS12_item_decrypt_d2i
                0x000000004020b7c4                PKCS12_item_i2d_encrypt
                0x000000004020b900                PKCS8_encrypt
                0x000000004020ba38                X509_policy_tree_level_count
                0x000000004020ba4b                X509_policy_tree_get0_level
                0x000000004020ba7a                X509_policy_tree_get0_policies
                0x000000004020ba90                X509_policy_tree_get0_user_policies
                0x000000004020bab2                X509_policy_level_node_count
                0x000000004020bae9                X509_policy_level_get0_node
                0x000000004020bb14                X509_policy_node_get0_policy
                0x000000004020bb2d                X509_policy_node_get0_qualifiers
                0x000000004020bb46                X509_policy_node_get0_parent
                0x000000004020bb7b                policy_node_cmp_new
                0x000000004020bb8b                tree_find_sk
                0x000000004020bbc7                level_find_node
                0x000000004020bc3b                policy_node_free
                0x000000004020bc46                level_add_node
                0x000000004020bd42                policy_node_match
                0x000000004020bf49                i2v_GENERAL_NAME
                0x000000004020c1d0                i2v_GENERAL_NAMES
                0x000000004020c234                GENERAL_NAME_print
                0x000000004020c3d8                a2i_GENERAL_NAME
                0x000000004020c79c                v2i_GENERAL_NAME_ex
                0x000000004020c909                v2i_GENERAL_NAME
                0x000000004020cc54                v2i_GENERAL_NAMES
                0x000000004020cd4d                d2i_BASIC_CONSTRAINTS
                0x000000004020cd5d                i2d_BASIC_CONSTRAINTS
                0x000000004020cd6d                BASIC_CONSTRAINTS_new
                0x000000004020cd7d                BASIC_CONSTRAINTS_free
                0x000000004020d515                X509V3_EXT_nconf
                0x000000004020d5ec                X509V3_EXT_nconf_nid
                0x000000004020d67c                X509V3_EXT_i2d
                0x000000004020d6e6                X509V3_EXT_add_nconf_sk
                0x000000004020d78e                X509V3_EXT_add_nconf
                0x000000004020d7ad                X509V3_EXT_CRL_add_nconf
                0x000000004020d7cc                X509V3_EXT_REQ_add_nconf
                0x000000004020d82b                X509V3_get_string
                0x000000004020d876                X509V3_get_section
                0x000000004020d8c2                X509V3_string_free
                0x000000004020d8e0                X509V3_section_free
                0x000000004020d8fe                X509V3_set_nconf
                0x000000004020d910                X509V3_set_ctx
                0x000000004020d929                X509V3_EXT_conf
                0x000000004020d972                X509V3_EXT_conf_nid
                0x000000004020d9bb                X509V3_set_conf_lhash
                0x000000004020d9cd                X509V3_EXT_add_conf
                0x000000004020da16                X509V3_EXT_CRL_add_conf
                0x000000004020da5f                X509V3_EXT_REQ_add_conf
                0x000000004020dbff                ACCESS_DESCRIPTION_free
                0x000000004020dc0f                d2i_ACCESS_DESCRIPTION
                0x000000004020dc1f                i2d_ACCESS_DESCRIPTION
                0x000000004020dc2f                ACCESS_DESCRIPTION_new
                0x000000004020de59                d2i_AUTHORITY_INFO_ACCESS
                0x000000004020de69                i2d_AUTHORITY_INFO_ACCESS
                0x000000004020de79                AUTHORITY_INFO_ACCESS_new
                0x000000004020de89                AUTHORITY_INFO_ACCESS_free
                0x000000004020de99                i2a_ACCESS_DESCRIPTION
                0x000000004020dedc                X509V3_EXT_add
                0x000000004020df70                X509V3_EXT_get_nid
                0x000000004020dfe8                X509V3_EXT_get
                0x000000004020e006                X509V3_EXT_add_list
                0x000000004020e044                X509V3_EXT_add_alias
                0x000000004020e13f                X509V3_EXT_cleanup
                0x000000004020e161                X509V3_add_standard_extensions
                0x000000004020e16c                X509V3_EXT_d2i
                0x000000004020e1c7                X509V3_get_d2i
                0x000000004020e2ef                X509V3_add1_i2d
                0x000000004020f2b0                d2i_PROXY_POLICY
                0x000000004020f2c0                i2d_PROXY_POLICY
                0x000000004020f2d0                PROXY_POLICY_new
                0x000000004020f2e0                PROXY_POLICY_free
                0x000000004020f2f0                d2i_PROXY_CERT_INFO_EXTENSION
                0x000000004020f300                i2d_PROXY_CERT_INFO_EXTENSION
                0x000000004020f310                PROXY_CERT_INFO_EXTENSION_new
                0x000000004020f320                PROXY_CERT_INFO_EXTENSION_free
                0x000000004020f3c1                d2i_PKEY_USAGE_PERIOD
                0x000000004020f3d1                i2d_PKEY_USAGE_PERIOD
                0x000000004020f3e1                PKEY_USAGE_PERIOD_new
                0x000000004020f3f1                PKEY_USAGE_PERIOD_free
                0x000000004020f410                i2s_ASN1_OCTET_STRING
                0x000000004020f425                s2i_ASN1_OCTET_STRING
                0x000000004020f6d7                d2i_SXNETID
                0x000000004020f6e7                i2d_SXNETID
                0x000000004020f6f7                SXNETID_new
                0x000000004020f707                SXNETID_free
                0x000000004020f717                d2i_SXNET
                0x000000004020f727                i2d_SXNET
                0x000000004020f737                SXNET_new
                0x000000004020f747                SXNET_free
                0x000000004020f757                SXNET_get_id_INTEGER
                0x000000004020f7b6                SXNET_get_id_ulong
                0x000000004020f847                SXNET_get_id_asc
                0x000000004020f8b6                SXNET_add_id_INTEGER
                0x000000004020fa76                SXNET_add_id_ulong
                0x000000004020fb14                SXNET_add_id_asc
                0x000000004020fbe8                X509_get_default_private_dir
                0x000000004020fbf3                X509_get_default_cert_area
                0x000000004020fbfe                X509_get_default_cert_dir
                0x000000004020fc09                X509_get_default_cert_file
                0x000000004020fc14                X509_get_default_cert_dir_env
                0x000000004020fc1f                X509_get_default_cert_file_env
                0x000000004020fc71                i2d_ASN1_SET
                0x000000004020feda                d2i_ASN1_SET
                0x000000004021079f                ASN1_generate_v3
                0x00000000402110d1                ASN1_generate_nconf
                0x00000000402112dc                BN_GF2m_add
                0x00000000402113ba                BN_GF2m_mod_arr
                0x0000000040211656                BN_GF2m_mod_sqr_arr
                0x00000000402117fa                BN_GF2m_mod_mul_arr
                0x0000000040211a60                BN_GF2m_mod_exp_arr
                0x0000000040211b97                BN_GF2m_mod_sqrt_arr
                0x0000000040211c3f                BN_GF2m_mod_solve_quad_arr
                0x0000000040212009                BN_GF2m_poly2arr
                0x0000000040212093                BN_GF2m_mod_solve_quad
                0x0000000040212160                BN_GF2m_mod_sqrt
                0x000000004021222d                BN_GF2m_mod_exp
                0x0000000040212302                BN_GF2m_mod_sqr
                0x00000000402123cf                BN_GF2m_mod_mul
                0x00000000402124a4                BN_GF2m_mod
                0x0000000040212569                BN_GF2m_mod_inv
                0x0000000040212749                BN_GF2m_mod_div
                0x00000000402127e6                BN_GF2m_arr2poly
                0x000000004021284b                BN_GF2m_mod_div_arr
                0x00000000402128df                BN_GF2m_mod_inv_arr
                0x0000000040212970                CONF_set_nconf
                0x00000000402129b7                CONF_set_default_method
                0x00000000402129c9                CONF_load
                0x00000000402129f3                NCONF_new
                0x0000000040212a40                NCONF_free
                0x0000000040212a51                NCONF_free_data
                0x0000000040212a62                CONF_free
                0x0000000040212a81                NCONF_load
                0x0000000040212ab6                NCONF_load_bio
                0x0000000040212aeb                CONF_load_bio
                0x0000000040212b35                NCONF_get_section
                0x0000000040212b92                CONF_get_section
                0x0000000040212bc7                NCONF_get_string
                0x0000000040212c6e                CONF_get_string
                0x0000000040212cb5                NCONF_get_number_e
                0x0000000040212d50                CONF_get_number
                0x0000000040212dae                NCONF_dump_bio
                0x0000000040212de3                CONF_dump_bio
                0x0000000040212e10                DSO_METHOD_null
                0x00000000402136da                ec_GF2m_simple_mul
                0x0000000040213935                ec_GF2m_precompute_mult
                0x0000000040213940                ec_GF2m_have_precompute_mult
                0x000000004021394c                i2a_ASN1_INTEGER
                0x0000000040213a8d                a2i_ASN1_INTEGER
                0x0000000040213d90                i2a_ASN1_STRING
                0x0000000040213ea1                a2i_ASN1_STRING
                0x0000000040214158                d2i_OCSP_SIGNATURE
                0x0000000040214168                i2d_OCSP_SIGNATURE
                0x0000000040214178                OCSP_SIGNATURE_new
                0x0000000040214188                OCSP_SIGNATURE_free
                0x0000000040214198                d2i_OCSP_CERTID
                0x00000000402141a8                i2d_OCSP_CERTID
                0x00000000402141b8                OCSP_CERTID_new
                0x00000000402141c8                OCSP_CERTID_free
                0x00000000402141d8                d2i_OCSP_ONEREQ
                0x00000000402141e8                i2d_OCSP_ONEREQ
                0x00000000402141f8                OCSP_ONEREQ_new
                0x0000000040214208                OCSP_ONEREQ_free
                0x0000000040214218                d2i_OCSP_REQINFO
                0x0000000040214228                i2d_OCSP_REQINFO
                0x0000000040214238                OCSP_REQINFO_new
                0x0000000040214248                OCSP_REQINFO_free
                0x0000000040214258                d2i_OCSP_REQUEST
                0x0000000040214268                i2d_OCSP_REQUEST
                0x0000000040214278                OCSP_REQUEST_new
                0x0000000040214288                OCSP_REQUEST_free
                0x0000000040214298                d2i_OCSP_RESPBYTES
                0x00000000402142a8                i2d_OCSP_RESPBYTES
                0x00000000402142b8                OCSP_RESPBYTES_new
                0x00000000402142c8                OCSP_RESPBYTES_free
                0x00000000402142d8                d2i_OCSP_RESPONSE
                0x00000000402142e8                i2d_OCSP_RESPONSE
                0x00000000402142f8                OCSP_RESPONSE_new
                0x0000000040214308                OCSP_RESPONSE_free
                0x0000000040214318                d2i_OCSP_RESPID
                0x0000000040214328                i2d_OCSP_RESPID
                0x0000000040214338                OCSP_RESPID_new
                0x0000000040214348                OCSP_RESPID_free
                0x0000000040214358                d2i_OCSP_REVOKEDINFO
                0x0000000040214368                i2d_OCSP_REVOKEDINFO
                0x0000000040214378                OCSP_REVOKEDINFO_new
                0x0000000040214388                OCSP_REVOKEDINFO_free
                0x0000000040214398                d2i_OCSP_CERTSTATUS
                0x00000000402143a8                i2d_OCSP_CERTSTATUS
                0x00000000402143b8                OCSP_CERTSTATUS_new
                0x00000000402143c8                OCSP_CERTSTATUS_free
                0x00000000402143d8                d2i_OCSP_SINGLERESP
                0x00000000402143e8                i2d_OCSP_SINGLERESP
                0x00000000402143f8                OCSP_SINGLERESP_new
                0x0000000040214408                OCSP_SINGLERESP_free
                0x0000000040214418                d2i_OCSP_RESPDATA
                0x0000000040214428                i2d_OCSP_RESPDATA
                0x0000000040214438                OCSP_RESPDATA_new
                0x0000000040214448                OCSP_RESPDATA_free
                0x0000000040214458                d2i_OCSP_BASICRESP
                0x0000000040214468                i2d_OCSP_BASICRESP
                0x0000000040214478                OCSP_BASICRESP_new
                0x0000000040214488                OCSP_BASICRESP_free
                0x0000000040214498                d2i_OCSP_CRLID
                0x00000000402144a8                i2d_OCSP_CRLID
                0x00000000402144b8                OCSP_CRLID_new
                0x00000000402144c8                OCSP_CRLID_free
                0x00000000402144d8                d2i_OCSP_SERVICELOC
                0x00000000402144e8                i2d_OCSP_SERVICELOC
                0x00000000402144f8                OCSP_SERVICELOC_new
                0x0000000040214508                OCSP_SERVICELOC_free
                0x00000000402148cc                v2i_ASN1_BIT_STRING
                0x0000000040214a4f                i2v_ASN1_BIT_STRING
                0x0000000040214aa4                i2s_ASN1_ENUMERATED_TABLE
                0x0000000040214c70                d2i_EXTENDED_KEY_USAGE
                0x0000000040214c80                i2d_EXTENDED_KEY_USAGE
                0x0000000040214c90                EXTENDED_KEY_USAGE_new
                0x0000000040214ca0                EXTENDED_KEY_USAGE_free
                0x0000000040214f18                _CONF_get_section
                0x0000000040214f4c                _CONF_get_section_values
                0x0000000040214f67                _CONF_add_string
                0x0000000040214ff2                _CONF_get_string
                0x0000000040215090                _CONF_new_data
                0x00000000402150d2                _CONF_free_data
                0x0000000040215123                _CONF_new_section
                0x00000000402160b1                NCONF_default
                0x00000000402160bc                NCONF_WIN32
                0x00000000402160c8                codeend = .

.iplt           0x00000000402160d0        0x0 load address 0x00000000002160d0
 .iplt          0x0000000000000000        0x0 output.o

.rodata         0x00000000402160e0    0x34fcc load address 0x00000000002160e0
 .rodata        0x00000000402160e0    0x34fcc output.o
                0x0000000040224280                BN_version
                0x00000000402246a0                DES_SPtrans
                0x00000000402256a0                DH_version
                0x0000000040226b80                OSSL_DES_version
                0x0000000040226bc0                OSSL_libdes_version
                0x0000000040226ca0                EVP_version
                0x0000000040226d60                IDEA_version
                0x0000000040226da0                lh_version
                0x00000000402273e0                MD4_version
                0x0000000040227420                MD5_version
                0x0000000040233fa0                PEM_version
                0x0000000040234000                PKCS7_ATTR_VERIFY_it
                0x0000000040234040                PKCS7_ATTR_SIGN_it
                0x0000000040234080                PKCS7_DIGEST_it
                0x00000000402340c0                PKCS7_ENCRYPT_it
                0x0000000040234100                PKCS7_SIGN_ENVELOPE_it
                0x0000000040234140                PKCS7_ENC_CONTENT_it
                0x0000000040234180                PKCS7_RECIP_INFO_it
                0x00000000402341c0                PKCS7_ENVELOPE_it
                0x0000000040234200                PKCS7_ISSUER_AND_SERIAL_it
                0x0000000040234240                PKCS7_SIGNER_INFO_it
                0x0000000040234280                PKCS7_SIGNED_it
                0x00000000402342c0                PKCS7_it
                0x0000000040234d80                RC2_version
                0x0000000040234ec0                RC4_version
                0x0000000040234f00                RMD160_version
                0x0000000040234f40                RSAPublicKey_it
                0x0000000040234f80                RSAPrivateKey_it
                0x0000000040235220                RSA_version
                0x0000000040236420                SHA1_version
                0x0000000040236460                SHA256_version
                0x00000000402365a0                SHA512_version
                0x0000000040236860                SHA_version
                0x00000000402368a0                STACK_version
                0x0000000040236b00                ASN1_SET_ANY_it
                0x0000000040236b40                ASN1_SEQUENCE_ANY_it
                0x0000000040236b80                ASN1_OCTET_STRING_NDEF_it
                0x0000000040236bc0                ASN1_FBOOLEAN_it
                0x0000000040236c00                ASN1_TBOOLEAN_it
                0x0000000040236c40                ASN1_BOOLEAN_it
                0x0000000040236c80                DIRECTORYSTRING_it
                0x0000000040236cc0                DISPLAYTEXT_it
                0x0000000040236d00                ASN1_PRINTABLE_it
                0x0000000040236d40                ASN1_SEQUENCE_it
                0x0000000040236d80                ASN1_ANY_it
                0x0000000040236dc0                ASN1_BMPSTRING_it
                0x0000000040236e00                ASN1_UNIVERSALSTRING_it
                0x0000000040236e40                ASN1_VISIBLESTRING_it
                0x0000000040236e80                ASN1_GENERALIZEDTIME_it
                0x0000000040236ec0                ASN1_UTCTIME_it
                0x0000000040236f00                ASN1_GENERALSTRING_it
                0x0000000040236f40                ASN1_IA5STRING_it
                0x0000000040236f80                ASN1_T61STRING_it
                0x0000000040236fc0                ASN1_PRINTABLESTRING_it
                0x0000000040237000                ASN1_UTF8STRING_it
                0x0000000040237040                ASN1_OBJECT_it
                0x0000000040237080                ASN1_NULL_it
                0x00000000402370c0                ASN1_OCTET_STRING_it
                0x0000000040237100                ASN1_BIT_STRING_it
                0x0000000040237140                ASN1_ENUMERATED_it
                0x0000000040237180                ASN1_INTEGER_it
                0x0000000040237260                X509_version
                0x00000000402373c0                X509_ALGORS_it
                0x0000000040237400                X509_ALGOR_it
                0x00000000402374e0                X509_ATTRIBUTE_it
                0x0000000040237520                X509_ATTRIBUTE_SET_it
                0x0000000040237620                CBIGNUM_it
                0x0000000040237660                BIGNUM_it
                0x00000000402376a0                X509_CRL_it
                0x00000000402376e0                X509_CRL_INFO_it
                0x0000000040237720                X509_REVOKED_it
                0x0000000040237a00                X509_EXTENSIONS_it
                0x0000000040237a40                X509_EXTENSION_it
                0x0000000040237b40                ZLONG_it
                0x0000000040237b80                LONG_it
                0x0000000040237bc0                X509_NAME_it
                0x0000000040237c00                x509_name_ff
                0x0000000040237c40                X509_NAME_INTERNAL_it
                0x0000000040237c80                X509_NAME_ENTRIES_it
                0x0000000040237cc0                X509_NAME_ENTRY_it
                0x0000000040237de0                X509_PUBKEY_it
                0x0000000040237ec0                X509_REQ_it
                0x0000000040237f00                X509_REQ_INFO_it
                0x00000000402380e0                X509_SIG_it
                0x0000000040238180                NETSCAPE_SPKI_it
                0x00000000402381c0                NETSCAPE_SPKAC_it
                0x00000000402382e0                X509_it
                0x0000000040238320                X509_CINF_it
                0x0000000040238600                X509_CERT_PAIR_it
                0x0000000040238640                X509_CERT_AUX_it
                0x0000000040238c40                rsa_pkey_meth
                0x0000000040238d20                dh_pkey_meth
                0x0000000040238e00                dsa_pkey_meth
                0x0000000040238ee0                ec_pkey_meth
                0x0000000040238fc0                hmac_pkey_meth
                0x00000000402390e0                rsa_asn1_meths
                0x0000000040239260                dh_asn1_meth
                0x0000000040239320                dsa_asn1_meths
                0x00000000402396c0                eckey_asn1_meth
                0x0000000040239780                hmac_asn1_meth
                0x000000004023a8c0                CMS_Receipt_it
                0x000000004023a900                CMS_ReceiptRequest_it
                0x000000004023a940                CMS_ReceiptsFrom_it
                0x000000004023a980                CMS_Attributes_Verify_it
                0x000000004023a9c0                CMS_Attributes_Sign_it
                0x000000004023aa00                CMS_ContentInfo_it
                0x000000004023aa40                CMS_CompressedData_it
                0x000000004023aa80                CMS_AuthenticatedData_it
                0x000000004023aac0                CMS_EncryptedData_it
                0x000000004023ab00                CMS_DigestedData_it
                0x000000004023ab40                CMS_EnvelopedData_it
                0x000000004023ab80                CMS_RecipientInfo_it
                0x000000004023abc0                CMS_OtherRecipientInfo_it
                0x000000004023ac00                CMS_PasswordRecipientInfo_it
                0x000000004023ac40                CMS_KEKRecipientInfo_it
                0x000000004023ac80                CMS_KEKIdentifier_it
                0x000000004023acc0                CMS_KeyAgreeRecipientInfo_it
                0x000000004023ad00                CMS_OriginatorIdentifierOrKey_it
                0x000000004023ad40                CMS_OriginatorPublicKey_it
                0x000000004023ad80                CMS_RecipientEncryptedKey_it
                0x000000004023adc0                CMS_KeyAgreeRecipientIdentifier_it
                0x000000004023ae00                CMS_RecipientKeyIdentifier_it
                0x000000004023ae40                CMS_OtherKeyAttribute_it
                0x000000004023ae80                CMS_KeyTransRecipientInfo_it
                0x000000004023aec0                CMS_EncryptedContentInfo_it
                0x000000004023af00                CMS_OriginatorInfo_it
                0x000000004023af40                CMS_SignedData_it
                0x000000004023af80                CMS_RevocationInfoChoice_it
                0x000000004023afc0                CMS_OtherRevocationInfoFormat_it
                0x000000004023b000                CMS_SignerInfo_it
                0x000000004023b040                CMS_EncapsulatedContentInfo_it
                0x000000004023b080                CMS_SignerIdentifier_it
                0x000000004023b0c0                CMS_CertificateChoices_it
                0x000000004023b100                CMS_OtherCertificateFormat_it
                0x000000004023b140                CMS_IssuerAndSerialNumber_it
                0x000000004023c980                ASN1_TIME_it
                0x000000004023ca00                ASN1_version
                0x000000004023cb60                BF_version
                0x000000004023ed00                CAST_version
                0x000000004023edc0                CAST_S_table7
                0x000000004023f1c0                CAST_S_table6
                0x000000004023f5c0                CAST_S_table5
                0x000000004023f9c0                CAST_S_table4
                0x000000004023fdc0                CAST_S_table3
                0x00000000402401c0                CAST_S_table2
                0x00000000402405c0                CAST_S_table1
                0x00000000402409c0                CAST_S_table0
                0x0000000040241000                DHparams_it
                0x0000000040241100                DSAPublicKey_it
                0x0000000040241140                dsa_pub_internal_it
                0x0000000040241180                DSAparams_it
                0x00000000402411c0                DSAPrivateKey_it
                0x0000000040241200                DSA_SIG_it
                0x0000000040241620                DSA_version
                0x0000000040241660                EC_PRIVATEKEY_it
                0x00000000402416a0                ECPKPARAMETERS_it
                0x00000000402416e0                ECPARAMETERS_it
                0x0000000040241720                X9_62_CURVE_it
                0x0000000040241760                X9_62_FIELDID_it
                0x00000000402417a0                X9_62_CHARACTERISTIC_TWO_it
                0x00000000402417e0                X9_62_PENTANOMIAL_it
                0x00000000402457a0                ECDH_version
                0x0000000040245ba0                ECDSA_version
                0x0000000040245ea0                RAND_version
                0x0000000040245ee0                NETSCAPE_CERT_SEQUENCE_it
                0x0000000040245fc0                PBEPARAM_it
                0x0000000040246060                PBKDF2PARAM_it
                0x00000000402460a0                PBE2PARAM_it
                0x00000000402461e0                PKCS8_PRIV_KEY_INFO_it
                0x00000000402463a0                AUTHORITY_KEYID_it
                0x0000000040246460                NOTICEREF_it
                0x00000000402464a0                USERNOTICE_it
                0x00000000402464e0                POLICYQUALINFO_it
                0x0000000040246520                POLICYINFO_it
                0x0000000040246560                CERTIFICATEPOLICIES_it
                0x00000000402465a0                v3_cpols
                0x00000000402468c0                v3_idp
                0x0000000040246940                ISSUING_DIST_POINT_it
                0x0000000040246980                CRL_DIST_POINTS_it
                0x00000000402469c0                DIST_POINT_it
                0x0000000040246a00                DIST_POINT_NAME_it
                0x0000000040246a40                v3_freshest_crl
                0x0000000040246ac0                v3_crld
                0x0000000040246f80                GENERAL_NAMES_it
                0x0000000040246fc0                GENERAL_NAME_it
                0x0000000040247000                EDIPARTYNAME_it
                0x0000000040247040                OTHERNAME_it
                0x0000000040247300                NAME_CONSTRAINTS_it
                0x0000000040247340                GENERAL_SUBTREE_it
                0x0000000040247380                v3_name_constraints
                0x00000000402474e0                POLICY_CONSTRAINTS_it
                0x0000000040247520                v3_policy_constraints
                0x0000000040247600                POLICY_MAPPINGS_it
                0x0000000040247640                POLICY_MAPPING_it
                0x0000000040247680                v3_policy_mappings
                0x0000000040247800                X509_VAL_it
                0x00000000402482a0                ECDSA_SIG_it
                0x0000000040248340                PKCS12_AUTHSAFES_it
                0x0000000040248380                PKCS12_SAFEBAGS_it
                0x00000000402483c0                PKCS12_SAFEBAG_it
                0x0000000040248400                PKCS12_BAGS_it
                0x0000000040248440                PKCS12_MAC_DATA_it
                0x0000000040248480                PKCS12_it
                0x0000000040248ac0                v3_alt
                0x0000000040248c00                BASIC_CONSTRAINTS_it
                0x0000000040248c40                v3_bcons
                0x0000000040248d20                AUTHORITY_INFO_ACCESS_it
                0x0000000040248d60                ACCESS_DESCRIPTION_it
                0x0000000040248da0                v3_sinfo
                0x0000000040248e20                v3_info
                0x0000000040248f40                v3_ocsp_serviceloc
                0x0000000040248fc0                v3_ocsp_nocheck
                0x0000000040249040                v3_ocsp_nonce
                0x00000000402490c0                v3_crl_hold
                0x0000000040249140                v3_crl_invdate
                0x00000000402491c0                v3_ocsp_acutoff
                0x0000000040249240                v3_ocsp_crlid
                0x00000000402492c0                v3_pci
                0x0000000040249340                PROXY_CERT_INFO_EXTENSION_it
                0x0000000040249380                PROXY_POLICY_it
                0x0000000040249480                PKEY_USAGE_PERIOD_it
                0x00000000402494c0                v3_pkey_usage_period
                0x00000000402495a0                v3_skey_id
                0x0000000040249620                SXNET_it
                0x0000000040249660                SXNETID_it
                0x00000000402496a0                v3_sxnet
                0x0000000040249c80                CONF_version
                0x0000000040249cc0                OCSP_SERVICELOC_it
                0x0000000040249d00                OCSP_CRLID_it
                0x0000000040249d40                OCSP_BASICRESP_it
                0x0000000040249d80                OCSP_RESPDATA_it
                0x0000000040249dc0                OCSP_SINGLERESP_it
                0x0000000040249e00                OCSP_CERTSTATUS_it
                0x0000000040249e40                OCSP_REVOKEDINFO_it
                0x0000000040249e80                OCSP_RESPID_it
                0x0000000040249ec0                OCSP_RESPONSE_it
                0x0000000040249f00                OCSP_RESPBYTES_it
                0x0000000040249f40                OCSP_REQUEST_it
                0x0000000040249f80                OCSP_REQINFO_it
                0x0000000040249fc0                OCSP_ONEREQ_it
                0x000000004024a000                OCSP_CERTID_it
                0x000000004024a040                OCSP_SIGNATURE_it
                0x000000004024a840                v3_akey_id
                0x000000004024a8c0                v3_key_usage
                0x000000004024a940                v3_nscert
                0x000000004024a9c0                v3_crl_reason
                0x000000004024aa40                EXTENDED_KEY_USAGE_it
                0x000000004024aa80                v3_ocsp_accresp
                0x000000004024ab00                v3_ext_ku
                0x000000004024abc0                v3_ns_ia5_list
                0x000000004024af00                v3_inhibit_anyp
                0x000000004024af80                v3_delta_crl
                0x000000004024b000                v3_crl_num
                0x000000004024b080                CONF_def_version

.rodata.str1.1  0x000000004024b0ac    0x12b7a load address 0x000000000024b0ac
 .rodata.str1.1
                0x000000004024b0ac    0x12b7a output.o
                                      0x14f96 (size before relaxing)

.rodata.str1.8  0x000000004025dc28     0x97c0 load address 0x000000000025dc28
 .rodata.str1.8
                0x000000004025dc28     0x97c0 output.o
                                       0x9ae5 (size before relaxing)

.eh_frame       0x00000000402673e8    0x37560 load address 0x00000000002673e8
 .eh_frame      0x00000000402673e8    0x37560 output.o

.eh_frame_hdr   0x000000004029e948        0x8 load address 0x000000000029e948
 .eh_frame_hdr  0x000000004029e948        0x8 output.o

.note.gnu.build-id
                0x000000004029e950      0x288 load address 0x000000000029e950
 .note.gnu.build-id
                0x000000004029e950      0x288 output.o

.rela.dyn       0x000000004029ebd8        0x0 load address 0x000000000029ebd8
 .rela.iplt     0x0000000000000000        0x0 output.o
 .rela.text     0x0000000000000000        0x0 output.o

.data           0x000000004029f000  0x95b7000 load address 0x000000000029f000
                0x000000004029f000                data = .
 *(.data)
 .data          0x000000004029f000   0x9eaa53 output.o
                0x000000004029f020                config
                0x00000000402af190                use_pae
                0x00000000402af3b0                savemsr_index
                0x00000000402b0000                vmm_pml4
                0x00000000402b1000                vmm_pdp
                0x00000000402b2000                vmm_pd
                0x00000000402b3000                vmm_pd1
                0x00000000402b4000                vmm_pd2
                0x00000000402b5000                guest_int0x15_hook
                0x00000000402b501d                guest_int0x15_e801_fake_ax
                0x00000000402b5020                guest_int0x15_e801_fake_bx
                0x00000000402b5031                guest_int0x15_orig
                0x00000000402b5046                guest_int0x15_e820_data_minus0x18
                0x00000000402b504e                guest_int0x15_e820_end
                0x00000000402b5074                guest_int0x15_hook_end
                0x00000000402b6078                wakeup_entry_start
                0x00000000402b6081                wakeup_entry_addr
                0x00000000402b60a7                wakeup_entry_cr4
                0x00000000402b60b0                wakeup_entry_cr3
                0x00000000402b60b9                wakeup_entry_cr0
                0x00000000402b60c8                wakeup_entry_gdtr
                0x00000000402b60d2                wakeup_entry_end
                0x00000000402b6160                ata_bm_handler_table
                0x00000000402b61a0                ata_ctlblk_handler_table
                0x00000000402b61c0                ata_cmdblk_handler_table
                0x00000000402b6c70                usb_log_level
                0x00000000402b7600                hSessionCnt
                0x00000000402b7608                hObjectCnt
                0x00000000402b7e00                g_rgSCardT1Pci
                0x00000000402b7e10                g_rgSCardT0Pci
                0x00000000402b7e20                FI
                0x00000000402b7e60                DI
                0x00000000402bc480                default_pctx
                0x00000000402bf720                rand_ssleay_meth
                0x0000000040c89a58                . = ALIGN (0x8)
 *fill*         0x0000000040c89a53        0x5 00
                0x0000000040c89a58                __initfunc_start = .
 *(.initfunc)
 .initfunc      0x0000000040c89a58      0x640 output.o
                0x0000000040c89a58                __initfunc_acpi_init_paral
                0x0000000040c89a68                __initfunc_acpi_init_global
                0x0000000040c89a78                __initfunc_beep_init_msg
                0x0000000040c89a88                __initfunc_cache_init_pass
                0x0000000040c89a98                __initfunc_cache_init_vcpu
                0x0000000040c89aa8                __initfunc_cache_init_pcpu
                0x0000000040c89ab8                __initfunc_callrealmode_panic
                0x0000000040c89ac8                __initfunc_callrealmode_init_global
                0x0000000040c89ad8                __initfunc_cpu_mmu_spt_init_pcpu
                0x0000000040c89ae8                __initfunc_cpu_mmu_spt_init_global
                0x0000000040c89af8                __initfunc_cpuid_init
                0x0000000040c89b08                __initfunc_cpuid_pass_init
                0x0000000040c89b18                __initfunc_exint_pass_init
                0x0000000040c89b28                __initfunc_gmm_pass_init
                0x0000000040c89b38                __initfunc_install_int0x15_hook
                0x0000000040c89b48                __initfunc_idman_init
                0x0000000040c89b58                __initfunc_idman_init_global
                0x0000000040c89b68                __initfunc_int_wakeup
                0x0000000040c89b78                __initfunc_int_init_global
                0x0000000040c89b88                __initfunc_io_io_init
                0x0000000040c89b98                __initfunc_setiohooks
                0x0000000040c89ba8                __initfunc_io_iopass_init
                0x0000000040c89bb8                __initfunc_keyboard_init_msg
                0x0000000040c89bc8                __initfunc_localapic_init
                0x0000000040c89bd8                __initfunc_get_shiftflags
                0x0000000040c89be8                __initfunc_copy_minios
                0x0000000040c89bf8                __initfunc_print_boot_msg
                0x0000000040c89c08                __initfunc_debug_on_shift_key
                0x0000000040c89c18                __initfunc_create_pass_vm
                0x0000000040c89c28                __initfunc_virtualization_init_pcpu
                0x0000000040c89c38                __initfunc_unmap_user_area
                0x0000000040c89c48                __initfunc_mm_init_global
                0x0000000040c89c58                __initfunc_mmio_debug
                0x0000000040c89c68                __initfunc_mmio_init
                0x0000000040c89c78                __initfunc_msg_init_global
                0x0000000040c89c88                __initfunc_msr_init
                0x0000000040c89c98                __initfunc_msr_pass_init
                0x0000000040c89ca8                __initfunc_nmi_pass_init_pcpu
                0x0000000040c89cb8                __initfunc_nmi_pass_init
                0x0000000040c89cc8                __initfunc_panic_init_pcpu
                0x0000000040c89cd8                __initfunc_panic_init_msg
                0x0000000040c89ce8                __initfunc_panic_init_global3
                0x0000000040c89cf8                __initfunc_panic_init_global
                0x0000000040c89d08                __initfunc_printf_init_global
                0x0000000040c89d18                __initfunc_process_wakeup
                0x0000000040c89d28                __initfunc_process_init_ap
                0x0000000040c89d38                __initfunc_process_init_global
                0x0000000040c89d48                __initfunc_random_init_config0
                0x0000000040c89d58                __initfunc_random_init_global
                0x0000000040c89d68                __initfunc_reboot_init_msg
                0x0000000040c89d78                __initfunc_segment_init_global
                0x0000000040c89d88                __initfunc_serial_init_msg
                0x0000000040c89d98                __initfunc_sleep_init_msg
                0x0000000040c89da8                __initfunc_sleep_init_global
                0x0000000040c89db8                __initfunc_svm_panic
                0x0000000040c89dc8                __initfunc_sx_init_pass_init
                0x0000000040c89dd8                __initfunc_thread_init_pcpu
                0x0000000040c89de8                __initfunc_thread_init_global
                0x0000000040c89df8                __initfunc_time_init_msg
                0x0000000040c89e08                __initfunc_time_init_pcpu
                0x0000000040c89e18                __initfunc_time_init_global_status
                0x0000000040c89e28                __initfunc_time_init_global
                0x0000000040c89e38                __initfunc_timer_init_global
                0x0000000040c89e48                __initfunc_tty_init_msg
                0x0000000040c89e58                __initfunc_tty_init_global2
                0x0000000040c89e68                __initfunc_tty_init_global
                0x0000000040c89e78                __initfunc_vcpu_init_global
                0x0000000040c89e88                __initfunc_vga_init
                0x0000000040c89e98                __initfunc_vmmcall_init
                0x0000000040c89ea8                __initfunc_vmmcall_boot_init
                0x0000000040c89eb8                __initfunc_vmmcall_dbgsh_init_pcpu
                0x0000000040c89ec8                __initfunc_vmmcall_dbgsh_init_global
                0x0000000040c89ed8                __initfunc_vmmcall_dbgsh_init
                0x0000000040c89ee8                __initfunc_vmmcall_iccard_init
                0x0000000040c89ef8                __initfunc_vmmcall_log_init
                0x0000000040c89f08                __initfunc_vmmcall_status_init
                0x0000000040c89f18                __initfunc_vmmcall_status_init_global
                0x0000000040c89f28                __initfunc_vramwrite_init_bsp
                0x0000000040c89f38                __initfunc_vramwrite_init_msg
                0x0000000040c89f48                __initfunc_vt_register_status_callback
                0x0000000040c89f58                __initfunc_vt_panic
                0x0000000040c89f68                __initfunc_xsetbv_init
                0x0000000040c89f78                __initfunc_xsetbv_pass_init
                0x0000000040c89f88                __initfunc_core_init
                0x0000000040c89f98                __initfunc_ieee1394_init_boot
                0x0000000040c89fa8                __initfunc_ieee1394_init
                0x0000000040c89fb8                __initfunc_iommu_setup
                0x0000000040c89fc8                __initfunc_pci_init
                0x0000000040c89fd8                __initfunc_debug_ata_init
                0x0000000040c89fe8                __initfunc_ata_init
                0x0000000040c89ff8                __initfunc_uhci_init
                0x0000000040c8a008                __initfunc_ehci_init
                0x0000000040c8a018                __initfunc_pro100_init
                0x0000000040c8a028                __initfunc_suspend_pro1000
                0x0000000040c8a038                __initfunc_resume_pro1000
                0x0000000040c8a048                __initfunc_vpn_pro1000_init
                0x0000000040c8a058                __initfunc_storage_kernel_init
                0x0000000040c8a068                __initfunc_storage_io_initfunc
                0x0000000040c8a078                __initfunc_vpn_kernel_init
                0x0000000040c8a088                __initfunc_idman_kernel_init
                0x0000000040c8a098                __initfunc_end = .
                0x0000000040c8a098                __process_builtin = .
 *(.processes)
 .processes     0x0000000040c8a098      0x1a0 output.o
                0x0000000040c8a238                __process_builtin_end = .
                0x0000000040c8a238                bss = .
 *(.bss)
 *fill*         0x0000000040c8a238        0x8 00
 .bss           0x0000000040c8a240  0x8bca8a0 output.o
                0x0000000040c8daa0                vmmsize
                0x0000000040c8daa8                memorysize
                0x0000000040f11560                pcpu_default
                0x0000000040f2edc4                ps2_locked
                0x0000000040f2f270                syscallHandlerAddress
                0x0000000040f2f280                currentProtectedApplication
                0x0000000040f2f288                numberOfVMs
                0x0000000040f2f290                numberOfProtectedApplications
                0x0000000040f2f298                currentRunningApplication
                0x000000004972f9e0                syscall_metatata_table
                0x000000004972fa00                handler_descriptor
                0x000000004972fc08                drhd_list_head
                0x0000000049731440                pci_driver_list_head
                0x0000000049731448                pci_device_list_head
                0x00000000497315f0                uhci_monitor_boost_hc
                0x0000000049731608                usb_hc_list_head
                0x0000000049731610                usb_busses_head
                0x0000000049738f28                rt
                0x0000000049852950                hContext
                0x0000000049852958                sessionTable
                0x0000000049852960                slotTable
                0x0000000049852968                slotFlag
                0x0000000049852969                libInitFlag
                0x00000000498535c0                OPENSSL_NONPIC_relocated
                0x00000000498535c8                OPENSSL_ia32cap_P
                0x0000000049854208                cleanse_ctr
                0x0000000049854268                obj_cleanup_defer
                0x0000000049854288                _shadow_DES_check_key
                0x0000000049854388                app_pkey_methods
                0x00000000498543e0                chelp_inited
 *(COMMON)
 COMMON         0x0000000049854ae0      0xec4 output.o
                0x0000000049854ae0                clflush_size
                0x0000000049854b00                sReaderContext
                0x0000000049854b60                sigx_app
                0x0000000049854b68                num_dom
                0x0000000049854b80                mszReaders
                0x0000000049854f80                prohibit_iccard_init
                0x0000000049854f88                curthread
                0x0000000049854f90                sig_app
                0x0000000049854fa0                readerState
                0x0000000049855020                dom_io
                0x0000000049855820                acpi_dsdt_system_state
                0x0000000049855840                ehci_host
                0x0000000049855848                num_of_processors
                0x000000004985584c                e801_fake_bx
                0x000000004985584e                iommu_detected
                0x0000000049855850                dwReaders
                0x0000000049855860                readerTracker
                0x00000000498559a0                handler_descriptor_lock
                0x00000000498559a2                e801_fake_ax
                0x0000000049856000                . = ALIGN (0x1000)
 *fill*         0x00000000498559a4      0x65c 00
                0x0000000049856000                end = .

.igot.plt       0x0000000049856000        0x0 load address 0x0000000009856000
 .igot.plt      0x0000000000000000        0x0 output.o

/DISCARD/
 *(.gomi)
LOAD output.o
OUTPUT(bitvisor.elf elf64-x86-64)

.comment        0x0000000000000000       0x2a
 .comment       0x0000000000000000       0x2a output.o
                                       0x5dba (size before relaxing)

.note.GNU-stack
                0x0000000000000000        0x0
 .note.GNU-stack
                0x0000000000000000        0x0 output.o

.debug_aranges  0x0000000000000000     0x69f0
 .debug_aranges
                0x0000000000000000     0x69f0 output.o

.debug_info     0x0000000000000000   0x2a35c6
 .debug_info    0x0000000000000000   0x2a35c6 output.o

.debug_abbrev   0x0000000000000000    0x44686
 .debug_abbrev  0x0000000000000000    0x44686 output.o

.debug_line     0x0000000000000000    0x4d4fe
 .debug_line    0x0000000000000000    0x4d4fe output.o

.debug_str      0x0000000000000000    0x36dda
 .debug_str     0x0000000000000000    0x36dda output.o
                                     0x1289de (size before relaxing)

.debug_loc      0x0000000000000000   0x23fce5
 .debug_loc     0x0000000000000000   0x23fce5 output.o

.debug_ranges   0x0000000000000000     0x79c0
 .debug_ranges  0x0000000000000000     0x79c0 output.o

Cross Reference Table

Symbol                                            File
ACCESS_DESCRIPTION_free                           output.o
ACCESS_DESCRIPTION_it                             output.o
ACCESS_DESCRIPTION_new                            output.o
AES_cbc_encrypt                                   output.o
AES_cfb128_encrypt                                output.o
AES_cfb1_encrypt                                  output.o
AES_cfb8_encrypt                                  output.o
AES_decrypt                                       output.o
AES_ecb_encrypt                                   output.o
AES_encrypt                                       output.o
AES_ofb128_encrypt                                output.o
AES_set_decrypt_key                               output.o
AES_set_encrypt_key                               output.o
AES_unwrap_key                                    output.o
AES_wrap_key                                      output.o
ASN1_ANY_it                                       output.o
ASN1_BIT_STRING_check                             output.o
ASN1_BIT_STRING_free                              output.o
ASN1_BIT_STRING_get_bit                           output.o
ASN1_BIT_STRING_it                                output.o
ASN1_BIT_STRING_new                               output.o
ASN1_BIT_STRING_set                               output.o
ASN1_BIT_STRING_set_bit                           output.o
ASN1_BMPSTRING_free                               output.o
ASN1_BMPSTRING_it                                 output.o
ASN1_BMPSTRING_new                                output.o
ASN1_BOOLEAN_it                                   output.o
ASN1_ENUMERATED_free                              output.o
ASN1_ENUMERATED_get                               output.o
ASN1_ENUMERATED_it                                output.o
ASN1_ENUMERATED_new                               output.o
ASN1_ENUMERATED_set                               output.o
ASN1_ENUMERATED_to_BN                             output.o
ASN1_FBOOLEAN_it                                  output.o
ASN1_GENERALIZEDTIME_adj                          output.o
ASN1_GENERALIZEDTIME_check                        output.o
ASN1_GENERALIZEDTIME_free                         output.o
ASN1_GENERALIZEDTIME_it                           output.o
ASN1_GENERALIZEDTIME_new                          output.o
ASN1_GENERALIZEDTIME_print                        output.o
ASN1_GENERALIZEDTIME_set                          output.o
ASN1_GENERALIZEDTIME_set_string                   output.o
ASN1_GENERALSTRING_free                           output.o
ASN1_GENERALSTRING_it                             output.o
ASN1_GENERALSTRING_new                            output.o
ASN1_IA5STRING_free                               output.o
ASN1_IA5STRING_it                                 output.o
ASN1_IA5STRING_new                                output.o
ASN1_INTEGER_cmp                                  output.o
ASN1_INTEGER_dup                                  output.o
ASN1_INTEGER_free                                 output.o
ASN1_INTEGER_get                                  output.o
ASN1_INTEGER_it                                   output.o
ASN1_INTEGER_new                                  output.o
ASN1_INTEGER_set                                  output.o
ASN1_INTEGER_to_BN                                output.o
ASN1_NULL_free                                    output.o
ASN1_NULL_it                                      output.o
ASN1_NULL_new                                     output.o
ASN1_OBJECT_create                                output.o
ASN1_OBJECT_free                                  output.o
ASN1_OBJECT_it                                    output.o
ASN1_OBJECT_new                                   output.o
ASN1_OCTET_STRING_NDEF_it                         output.o
ASN1_OCTET_STRING_cmp                             output.o
ASN1_OCTET_STRING_dup                             output.o
ASN1_OCTET_STRING_free                            output.o
ASN1_OCTET_STRING_it                              output.o
ASN1_OCTET_STRING_new                             output.o
ASN1_OCTET_STRING_set                             output.o
ASN1_PCTX_free                                    output.o
ASN1_PCTX_get_cert_flags                          output.o
ASN1_PCTX_get_flags                               output.o
ASN1_PCTX_get_nm_flags                            output.o
ASN1_PCTX_get_oid_flags                           output.o
ASN1_PCTX_get_str_flags                           output.o
ASN1_PCTX_new                                     output.o
ASN1_PCTX_set_cert_flags                          output.o
ASN1_PCTX_set_flags                               output.o
ASN1_PCTX_set_nm_flags                            output.o
ASN1_PCTX_set_oid_flags                           output.o
ASN1_PCTX_set_str_flags                           output.o
ASN1_PRINTABLESTRING_free                         output.o
ASN1_PRINTABLESTRING_it                           output.o
ASN1_PRINTABLESTRING_new                          output.o
ASN1_PRINTABLE_free                               output.o
ASN1_PRINTABLE_it                                 output.o
ASN1_PRINTABLE_new                                output.o
ASN1_PRINTABLE_type                               output.o
ASN1_SEQUENCE_ANY_it                              output.o
ASN1_SEQUENCE_it                                  output.o
ASN1_SET_ANY_it                                   output.o
ASN1_STRING_TABLE_add                             output.o
ASN1_STRING_TABLE_cleanup                         output.o
ASN1_STRING_TABLE_get                             output.o
ASN1_STRING_cmp                                   output.o
ASN1_STRING_copy                                  output.o
ASN1_STRING_data                                  output.o
ASN1_STRING_dup                                   output.o
ASN1_STRING_free                                  output.o
ASN1_STRING_get_default_mask                      output.o
ASN1_STRING_length                                output.o
ASN1_STRING_length_set                            output.o
ASN1_STRING_new                                   output.o
ASN1_STRING_print                                 output.o
ASN1_STRING_print_ex                              output.o
ASN1_STRING_set                                   output.o
ASN1_STRING_set0                                  output.o
ASN1_STRING_set_by_NID                            output.o
ASN1_STRING_set_default_mask                      output.o
ASN1_STRING_set_default_mask_asc                  output.o
ASN1_STRING_to_UTF8                               output.o
ASN1_STRING_type                                  output.o
ASN1_STRING_type_new                              output.o
ASN1_T61STRING_free                               output.o
ASN1_T61STRING_it                                 output.o
ASN1_T61STRING_new                                output.o
ASN1_TBOOLEAN_it                                  output.o
ASN1_TIME_adj                                     output.o
ASN1_TIME_check                                   output.o
ASN1_TIME_free                                    output.o
ASN1_TIME_it                                      output.o
ASN1_TIME_new                                     output.o
ASN1_TIME_print                                   output.o
ASN1_TIME_set                                     output.o
ASN1_TIME_set_string                              output.o
ASN1_TIME_to_generalizedtime                      output.o
ASN1_TYPE_cmp                                     output.o
ASN1_TYPE_free                                    output.o
ASN1_TYPE_get                                     output.o
ASN1_TYPE_get_int_octetstring                     output.o
ASN1_TYPE_get_octetstring                         output.o
ASN1_TYPE_new                                     output.o
ASN1_TYPE_set                                     output.o
ASN1_TYPE_set1                                    output.o
ASN1_TYPE_set_int_octetstring                     output.o
ASN1_TYPE_set_octetstring                         output.o
ASN1_UNIVERSALSTRING_free                         output.o
ASN1_UNIVERSALSTRING_it                           output.o
ASN1_UNIVERSALSTRING_new                          output.o
ASN1_UNIVERSALSTRING_to_string                    output.o
ASN1_UTCTIME_adj                                  output.o
ASN1_UTCTIME_check                                output.o
ASN1_UTCTIME_cmp_time_t                           output.o
ASN1_UTCTIME_free                                 output.o
ASN1_UTCTIME_it                                   output.o
ASN1_UTCTIME_new                                  output.o
ASN1_UTCTIME_print                                output.o
ASN1_UTCTIME_set                                  output.o
ASN1_UTCTIME_set_string                           output.o
ASN1_UTF8STRING_free                              output.o
ASN1_UTF8STRING_it                                output.o
ASN1_UTF8STRING_new                               output.o
ASN1_VISIBLESTRING_free                           output.o
ASN1_VISIBLESTRING_it                             output.o
ASN1_VISIBLESTRING_new                            output.o
ASN1_bn_print                                     output.o
ASN1_check_infinite_end                           output.o
ASN1_const_check_infinite_end                     output.o
ASN1_d2i_bio                                      output.o
ASN1_digest                                       output.o
ASN1_dup                                          output.o
ASN1_generate_nconf                               output.o
ASN1_generate_v3                                  output.o
ASN1_get_object                                   output.o
ASN1_i2d_bio                                      output.o
ASN1_item_d2i                                     output.o
ASN1_item_d2i_bio                                 output.o
ASN1_item_digest                                  output.o
ASN1_item_dup                                     output.o
ASN1_item_ex_d2i                                  output.o
ASN1_item_ex_free                                 output.o
ASN1_item_ex_i2d                                  output.o
ASN1_item_ex_new                                  output.o
ASN1_item_free                                    output.o
ASN1_item_i2d                                     output.o
ASN1_item_i2d_bio                                 output.o
ASN1_item_ndef_i2d                                output.o
ASN1_item_new                                     output.o
ASN1_item_pack                                    output.o
ASN1_item_print                                   output.o
ASN1_item_sign                                    output.o
ASN1_item_unpack                                  output.o
ASN1_item_verify                                  output.o
ASN1_mbstring_copy                                output.o
ASN1_mbstring_ncopy                               output.o
ASN1_object_size                                  output.o
ASN1_pack_string                                  output.o
ASN1_parse                                        output.o
ASN1_parse_dump                                   output.o
ASN1_primitive_free                               output.o
ASN1_primitive_new                                output.o
ASN1_put_eoc                                      output.o
ASN1_put_object                                   output.o
ASN1_seq_pack                                     output.o
ASN1_seq_unpack                                   output.o
ASN1_sign                                         output.o
ASN1_tag2bit                                      output.o
ASN1_tag2str                                      output.o
ASN1_template_d2i                                 output.o
ASN1_template_free                                output.o
ASN1_template_i2d                                 output.o
ASN1_template_new                                 output.o
ASN1_unpack_string                                output.o
ASN1_verify                                       output.o
ASN1_version                                      output.o
AUTHORITY_INFO_ACCESS_free                        output.o
AUTHORITY_INFO_ACCESS_it                          output.o
AUTHORITY_INFO_ACCESS_new                         output.o
AUTHORITY_KEYID_free                              output.o
AUTHORITY_KEYID_it                                output.o
AUTHORITY_KEYID_new                               output.o
AddCertDataByBuf                                  output.o
AddElem                                           output.o
AddIdPassDataByBuf                                output.o
AddObjTblByTlv                                    output.o
BASIC_CONSTRAINTS_free                            output.o
BASIC_CONSTRAINTS_it                              output.o
BASIC_CONSTRAINTS_new                             output.o
BF_cbc_encrypt                                    output.o
BF_cfb64_encrypt                                  output.o
BF_decrypt                                        output.o
BF_ecb_encrypt                                    output.o
BF_encrypt                                        output.o
BF_ofb64_encrypt                                  output.o
BF_options                                        output.o
BF_set_key                                        output.o
BF_version                                        output.o
BIGNUM_it                                         output.o
BIO_asn1_get_prefix                               output.o
BIO_asn1_get_suffix                               output.o
BIO_asn1_set_prefix                               output.o
BIO_asn1_set_suffix                               output.o
BIO_callback_ctrl                                 output.o
BIO_clear_flags                                   output.o
BIO_copy_next_retry                               output.o
BIO_ctrl                                          output.o
BIO_ctrl_pending                                  output.o
BIO_ctrl_wpending                                 output.o
BIO_dump                                          output.o
BIO_dump_cb                                       output.o
BIO_dump_indent                                   output.o
BIO_dump_indent_cb                                output.o
BIO_dup_chain                                     output.o
BIO_f_asn1                                        output.o
BIO_f_base64                                      output.o
BIO_f_buffer                                      output.o
BIO_f_cipher                                      output.o
BIO_f_md                                          output.o
BIO_find_type                                     output.o
BIO_free                                          output.o
BIO_free_all                                      output.o
BIO_get_callback                                  output.o
BIO_get_callback_arg                              output.o
BIO_get_ex_data                                   output.o
BIO_get_ex_new_index                              output.o
BIO_get_retry_BIO                                 output.o
BIO_get_retry_reason                              output.o
BIO_gets                                          output.o
BIO_indent                                        output.o
BIO_int_ctrl                                      output.o
BIO_method_name                                   output.o
BIO_method_type                                   output.o
BIO_new                                           output.o
BIO_new_CMS                                       output.o
BIO_new_NDEF                                      output.o
BIO_new_mem_buf                                   output.o
BIO_next                                          output.o
BIO_number_read                                   output.o
BIO_number_written                                output.o
BIO_pop                                           output.o
BIO_printf                                        output.o
BIO_ptr_ctrl                                      output.o
BIO_push                                          output.o
BIO_puts                                          output.o
BIO_read                                          output.o
BIO_s_mem                                         output.o
BIO_s_null                                        output.o
BIO_set                                           output.o
BIO_set_callback                                  output.o
BIO_set_callback_arg                              output.o
BIO_set_cipher                                    output.o
BIO_set_ex_data                                   output.o
BIO_set_flags                                     output.o
BIO_snprintf                                      output.o
BIO_test_flags                                    output.o
BIO_vfree                                         output.o
BIO_write                                         output.o
BN_BLINDING_convert                               output.o
BN_BLINDING_convert_ex                            output.o
BN_BLINDING_create_param                          output.o
BN_BLINDING_free                                  output.o
BN_BLINDING_get_flags                             output.o
BN_BLINDING_get_thread_id                         output.o
BN_BLINDING_invert                                output.o
BN_BLINDING_invert_ex                             output.o
BN_BLINDING_new                                   output.o
BN_BLINDING_set_flags                             output.o
BN_BLINDING_set_thread_id                         output.o
BN_BLINDING_thread_id                             output.o
BN_BLINDING_update                                output.o
BN_CTX_end                                        output.o
BN_CTX_free                                       output.o
BN_CTX_get                                        output.o
BN_CTX_init                                       output.o
BN_CTX_new                                        output.o
BN_CTX_start                                      output.o
BN_GENCB_call                                     output.o
BN_GF2m_add                                       output.o
BN_GF2m_arr2poly                                  output.o
BN_GF2m_mod                                       output.o
BN_GF2m_mod_arr                                   output.o
BN_GF2m_mod_div                                   output.o
BN_GF2m_mod_div_arr                               output.o
BN_GF2m_mod_exp                                   output.o
BN_GF2m_mod_exp_arr                               output.o
BN_GF2m_mod_inv                                   output.o
BN_GF2m_mod_inv_arr                               output.o
BN_GF2m_mod_mul                                   output.o
BN_GF2m_mod_mul_arr                               output.o
BN_GF2m_mod_solve_quad                            output.o
BN_GF2m_mod_solve_quad_arr                        output.o
BN_GF2m_mod_sqr                                   output.o
BN_GF2m_mod_sqr_arr                               output.o
BN_GF2m_mod_sqrt                                  output.o
BN_GF2m_mod_sqrt_arr                              output.o
BN_GF2m_poly2arr                                  output.o
BN_MONT_CTX_copy                                  output.o
BN_MONT_CTX_free                                  output.o
BN_MONT_CTX_init                                  output.o
BN_MONT_CTX_new                                   output.o
BN_MONT_CTX_set                                   output.o
BN_MONT_CTX_set_locked                            output.o
BN_RECP_CTX_free                                  output.o
BN_RECP_CTX_init                                  output.o
BN_RECP_CTX_new                                   output.o
BN_RECP_CTX_set                                   output.o
BN_add                                            output.o
BN_add_word                                       output.o
BN_asc2bn                                         output.o
BN_bin2bn                                         output.o
BN_bn2bin                                         output.o
BN_bn2dec                                         output.o
BN_bn2hex                                         output.o
BN_bntest_rand                                    output.o
BN_clear                                          output.o
BN_clear_bit                                      output.o
BN_clear_free                                     output.o
BN_cmp                                            output.o
BN_copy                                           output.o
BN_dec2bn                                         output.o
BN_div                                            output.o
BN_div_recp                                       output.o
BN_div_word                                       output.o
BN_dup                                            output.o
BN_exp                                            output.o
BN_free                                           output.o
BN_from_montgomery                                output.o
BN_gcd                                            output.o
BN_generate_prime_ex                              output.o
BN_get0_nist_prime_192                            output.o
BN_get0_nist_prime_224                            output.o
BN_get0_nist_prime_256                            output.o
BN_get0_nist_prime_384                            output.o
BN_get0_nist_prime_521                            output.o
BN_get_params                                     output.o
BN_get_word                                       output.o
BN_hex2bn                                         output.o
BN_init                                           output.o
BN_is_bit_set                                     output.o
BN_is_prime_ex                                    output.o
BN_is_prime_fasttest_ex                           output.o
BN_kronecker                                      output.o
BN_lshift                                         output.o
BN_lshift1                                        output.o
BN_mask_bits                                      output.o
BN_mod_add                                        output.o
BN_mod_add_quick                                  output.o
BN_mod_exp                                        output.o
BN_mod_exp2_mont                                  output.o
BN_mod_exp_mont                                   output.o
BN_mod_exp_mont_consttime                         output.o
BN_mod_exp_mont_word                              output.o
BN_mod_exp_recp                                   output.o
BN_mod_exp_simple                                 output.o
BN_mod_inverse                                    output.o
BN_mod_lshift                                     output.o
BN_mod_lshift1                                    output.o
BN_mod_lshift1_quick                              output.o
BN_mod_lshift_quick                               output.o
BN_mod_mul                                        output.o
BN_mod_mul_montgomery                             output.o
BN_mod_mul_reciprocal                             output.o
BN_mod_sqr                                        output.o
BN_mod_sqrt                                       output.o
BN_mod_sub                                        output.o
BN_mod_sub_quick                                  output.o
BN_mod_word                                       output.o
BN_mul                                            output.o
BN_mul_word                                       output.o
BN_new                                            output.o
BN_nist_mod_192                                   output.o
BN_nist_mod_224                                   output.o
BN_nist_mod_256                                   output.o
BN_nist_mod_384                                   output.o
BN_nist_mod_521                                   output.o
BN_nnmod                                          output.o
BN_num_bits                                       output.o
BN_num_bits_word                                  output.o
BN_options                                        output.o
BN_print                                          output.o
BN_pseudo_rand                                    output.o
BN_pseudo_rand_range                              output.o
BN_rand                                           output.o
BN_rand_range                                     output.o
BN_reciprocal                                     output.o
BN_rshift                                         output.o
BN_rshift1                                        output.o
BN_set_bit                                        output.o
BN_set_negative                                   output.o
BN_set_params                                     output.o
BN_set_word                                       output.o
BN_sqr                                            output.o
BN_sub                                            output.o
BN_sub_word                                       output.o
BN_swap                                           output.o
BN_to_ASN1_ENUMERATED                             output.o
BN_to_ASN1_INTEGER                                output.o
BN_uadd                                           output.o
BN_ucmp                                           output.o
BN_usub                                           output.o
BN_value_one                                      output.o
BN_version                                        output.o
BUF_MEM_free                                      output.o
BUF_MEM_grow                                      output.o
BUF_MEM_grow_clean                                output.o
BUF_MEM_new                                       output.o
BUF_memdup                                        output.o
BUF_reverse                                       output.o
BUF_strdup                                        output.o
BUF_strlcat                                       output.o
BUF_strlcpy                                       output.o
BUF_strndup                                       output.o
BlockSendCardT1                                   output.o
CAST_S_table0                                     output.o
CAST_S_table1                                     output.o
CAST_S_table2                                     output.o
CAST_S_table3                                     output.o
CAST_S_table4                                     output.o
CAST_S_table5                                     output.o
CAST_S_table6                                     output.o
CAST_S_table7                                     output.o
CAST_cbc_encrypt                                  output.o
CAST_cfb64_encrypt                                output.o
CAST_decrypt                                      output.o
CAST_ecb_encrypt                                  output.o
CAST_encrypt                                      output.o
CAST_ofb64_encrypt                                output.o
CAST_set_key                                      output.o
CAST_version                                      output.o
CBIGNUM_it                                        output.o
CERTIFICATEPOLICIES_free                          output.o
CERTIFICATEPOLICIES_it                            output.o
CERTIFICATEPOLICIES_new                           output.o
CMS_Attributes_Sign_it                            output.o
CMS_Attributes_Verify_it                          output.o
CMS_AuthenticatedData_it                          output.o
CMS_CertificateChoices_it                         output.o
CMS_CompressedData_it                             output.o
CMS_ContentInfo_free                              output.o
CMS_ContentInfo_it                                output.o
CMS_ContentInfo_new                               output.o
CMS_ContentInfo_print_ctx                         output.o
CMS_DigestedData_it                               output.o
CMS_EncapsulatedContentInfo_it                    output.o
CMS_EncryptedContentInfo_it                       output.o
CMS_EncryptedData_it                              output.o
CMS_EncryptedData_set1_key                        output.o
CMS_EnvelopedData_create                          output.o
CMS_EnvelopedData_it                              output.o
CMS_IssuerAndSerialNumber_it                      output.o
CMS_KEKIdentifier_it                              output.o
CMS_KEKRecipientInfo_it                           output.o
CMS_KeyAgreeRecipientIdentifier_it                output.o
CMS_KeyAgreeRecipientInfo_it                      output.o
CMS_KeyTransRecipientInfo_it                      output.o
CMS_OriginatorIdentifierOrKey_it                  output.o
CMS_OriginatorInfo_it                             output.o
CMS_OriginatorPublicKey_it                        output.o
CMS_OtherCertificateFormat_it                     output.o
CMS_OtherKeyAttribute_it                          output.o
CMS_OtherRecipientInfo_it                         output.o
CMS_OtherRevocationInfoFormat_it                  output.o
CMS_PasswordRecipientInfo_it                      output.o
CMS_ReceiptRequest_it                             output.o
CMS_Receipt_it                                    output.o
CMS_ReceiptsFrom_it                               output.o
CMS_RecipientEncryptedKey_it                      output.o
CMS_RecipientInfo_decrypt                         output.o
CMS_RecipientInfo_it                              output.o
CMS_RecipientInfo_kekri_get0_id                   output.o
CMS_RecipientInfo_kekri_id_cmp                    output.o
CMS_RecipientInfo_ktri_cert_cmp                   output.o
CMS_RecipientInfo_ktri_get0_algs                  output.o
CMS_RecipientInfo_ktri_get0_signer_id             output.o
CMS_RecipientInfo_set0_key                        output.o
CMS_RecipientInfo_set0_pkey                       output.o
CMS_RecipientInfo_type                            output.o
CMS_RecipientKeyIdentifier_it                     output.o
CMS_RevocationInfoChoice_it                       output.o
CMS_SignedData_init                               output.o
CMS_SignedData_it                                 output.o
CMS_SignerIdentifier_it                           output.o
CMS_SignerInfo_cert_cmp                           output.o
CMS_SignerInfo_get0_algs                          output.o
CMS_SignerInfo_get0_signer_id                     output.o
CMS_SignerInfo_it                                 output.o
CMS_SignerInfo_set1_signer_cert                   output.o
CMS_SignerInfo_sign                               output.o
CMS_SignerInfo_verify                             output.o
CMS_SignerInfo_verify_content                     output.o
CMS_add0_CertificateChoices                       output.o
CMS_add0_RevocationInfoChoice                     output.o
CMS_add0_cert                                     output.o
CMS_add0_crl                                      output.o
CMS_add0_recipient_key                            output.o
CMS_add1_cert                                     output.o
CMS_add1_crl                                      output.o
CMS_add1_recipient_cert                           output.o
CMS_add1_signer                                   output.o
CMS_add_simple_smimecap                           output.o
CMS_add_smimecap                                  output.o
CMS_add_standard_smimecap                         output.o
CMS_dataFinal                                     output.o
CMS_dataInit                                      output.o
CMS_get0_RecipientInfos                           output.o
CMS_get0_SignerInfos                              output.o
CMS_get0_content                                  output.o
CMS_get0_eContentType                             output.o
CMS_get0_signers                                  output.o
CMS_get0_type                                     output.o
CMS_get1_certs                                    output.o
CMS_get1_crls                                     output.o
CMS_is_detached                                   output.o
CMS_set1_eContentType                             output.o
CMS_set1_signers_certs                            output.o
CMS_set_detached                                  output.o
CMS_signed_add1_attr                              output.o
CMS_signed_add1_attr_by_NID                       output.o
CMS_signed_add1_attr_by_OBJ                       output.o
CMS_signed_add1_attr_by_txt                       output.o
CMS_signed_delete_attr                            output.o
CMS_signed_get0_data_by_OBJ                       output.o
CMS_signed_get_attr                               output.o
CMS_signed_get_attr_by_NID                        output.o
CMS_signed_get_attr_by_OBJ                        output.o
CMS_signed_get_attr_count                         output.o
CMS_stream                                        output.o
CMS_unsigned_add1_attr                            output.o
CMS_unsigned_add1_attr_by_NID                     output.o
CMS_unsigned_add1_attr_by_OBJ                     output.o
CMS_unsigned_add1_attr_by_txt                     output.o
CMS_unsigned_delete_attr                          output.o
CMS_unsigned_get0_data_by_OBJ                     output.o
CMS_unsigned_get_attr                             output.o
CMS_unsigned_get_attr_by_NID                      output.o
CMS_unsigned_get_attr_by_OBJ                      output.o
CMS_unsigned_get_attr_count                       output.o
CONF_def_version                                  output.o
CONF_dump_bio                                     output.o
CONF_free                                         output.o
CONF_get1_default_config_file                     output.o
CONF_get_number                                   output.o
CONF_get_section                                  output.o
CONF_get_string                                   output.o
CONF_imodule_get_flags                            output.o
CONF_imodule_get_module                           output.o
CONF_imodule_get_name                             output.o
CONF_imodule_get_usr_data                         output.o
CONF_imodule_get_value                            output.o
CONF_imodule_set_flags                            output.o
CONF_imodule_set_usr_data                         output.o
CONF_load                                         output.o
CONF_load_bio                                     output.o
CONF_module_add                                   output.o
CONF_module_get_usr_data                          output.o
CONF_module_set_usr_data                          output.o
CONF_modules_finish                               output.o
CONF_modules_free                                 output.o
CONF_modules_load                                 output.o
CONF_modules_load_file                            output.o
CONF_modules_unload                               output.o
CONF_parse_list                                   output.o
CONF_set_default_method                           output.o
CONF_set_nconf                                    output.o
CONF_version                                      output.o
CRL_DIST_POINTS_free                              output.o
CRL_DIST_POINTS_it                                output.o
CRL_DIST_POINTS_new                               output.o
CRYPTO_THREADID_cmp                               output.o
CRYPTO_THREADID_cpy                               output.o
CRYPTO_THREADID_current                           output.o
CRYPTO_THREADID_get_callback                      output.o
CRYPTO_THREADID_hash                              output.o
CRYPTO_THREADID_set_callback                      output.o
CRYPTO_THREADID_set_numeric                       output.o
CRYPTO_THREADID_set_pointer                       output.o
CRYPTO_add_lock                                   output.o
CRYPTO_cbc128_decrypt                             output.o
CRYPTO_cbc128_encrypt                             output.o
CRYPTO_cfb128_1_encrypt                           output.o
CRYPTO_cfb128_8_encrypt                           output.o
CRYPTO_cfb128_encrypt                             output.o
CRYPTO_cleanup_all_ex_data                        output.o
CRYPTO_dbg_free                                   output.o
CRYPTO_dbg_get_options                            output.o
CRYPTO_dbg_malloc                                 output.o
CRYPTO_dbg_realloc                                output.o
CRYPTO_dbg_set_options                            output.o
CRYPTO_destroy_dynlockid                          output.o
CRYPTO_dup_ex_data                                output.o
CRYPTO_ex_data_new_class                          output.o
CRYPTO_free                                       output.o
CRYPTO_free_ex_data                               output.o
CRYPTO_free_locked                                output.o
CRYPTO_get_add_lock_callback                      output.o
CRYPTO_get_dynlock_create_callback                output.o
CRYPTO_get_dynlock_destroy_callback               output.o
CRYPTO_get_dynlock_lock_callback                  output.o
CRYPTO_get_dynlock_value                          output.o
CRYPTO_get_ex_data                                output.o
CRYPTO_get_ex_data_implementation                 output.o
CRYPTO_get_ex_new_index                           output.o
CRYPTO_get_id_callback                            output.o
CRYPTO_get_lock_name                              output.o
CRYPTO_get_locked_mem_ex_functions                output.o
CRYPTO_get_locked_mem_functions                   output.o
CRYPTO_get_locking_callback                       output.o
CRYPTO_get_mem_debug_functions                    output.o
CRYPTO_get_mem_debug_options                      output.o
CRYPTO_get_mem_ex_functions                       output.o
CRYPTO_get_mem_functions                          output.o
CRYPTO_get_new_dynlockid                          output.o
CRYPTO_get_new_lockid                             output.o
CRYPTO_is_mem_check_on                            output.o
CRYPTO_lock                                       output.o
CRYPTO_malloc                                     output.o
CRYPTO_malloc_locked                              output.o
CRYPTO_mem_ctrl                                   output.o
CRYPTO_mem_leaks                                  output.o
CRYPTO_mem_leaks_cb                               output.o
CRYPTO_new_ex_data                                output.o
CRYPTO_num_locks                                  output.o
CRYPTO_ofb128_encrypt                             output.o
CRYPTO_pop_info                                   output.o
CRYPTO_push_info_                                 output.o
CRYPTO_realloc                                    output.o
CRYPTO_realloc_clean                              output.o
CRYPTO_remalloc                                   output.o
CRYPTO_remove_all_info                            output.o
CRYPTO_set_add_lock_callback                      output.o
CRYPTO_set_dynlock_create_callback                output.o
CRYPTO_set_dynlock_destroy_callback               output.o
CRYPTO_set_dynlock_lock_callback                  output.o
CRYPTO_set_ex_data                                output.o
CRYPTO_set_ex_data_implementation                 output.o
CRYPTO_set_id_callback                            output.o
CRYPTO_set_locked_mem_ex_functions                output.o
CRYPTO_set_locked_mem_functions                   output.o
CRYPTO_set_locking_callback                       output.o
CRYPTO_set_mem_debug_functions                    output.o
CRYPTO_set_mem_debug_options                      output.o
CRYPTO_set_mem_ex_functions                       output.o
CRYPTO_set_mem_functions                          output.o
CRYPTO_strdup                                     output.o
CRYPTO_thread_id                                  output.o
C_CloseAllSessions                                output.o
C_CloseSession                                    output.o
C_CreateObject                                    output.o
C_DestroyObject                                   output.o
C_DigestFinal                                     output.o
C_DigestInit                                      output.o
C_DigestUpdate                                    output.o
C_Finalize                                        output.o
C_FindObjects                                     output.o
C_FindObjectsFinal                                output.o
C_FindObjectsInit                                 output.o
C_GetAttributeValue                               output.o
C_GetCardStatus                                   output.o
C_GetFunctionList                                 output.o
C_GetInfo                                         output.o
C_GetMechanismInfo                                output.o
C_GetMechanismList                                output.o
C_GetSessionInfo                                  output.o
C_GetSlotInfo                                     output.o
C_GetSlotList                                     output.o
C_GetTokenInfo                                    output.o
C_Initialize                                      output.o
C_Login                                           output.o
C_Logout                                          output.o
C_OpenSession                                     output.o
C_SetAttributeValue                               output.o
C_Sign                                            output.o
C_SignInit                                        output.o
C_Verify                                          output.o
C_VerifyInit                                      output.o
CardConnect                                       output.o
CardDisconnect                                    output.o
CardEstablishContext                              output.o
CardListReaders                                   output.o
CardMechanical                                    output.o
CardReleaseContext                                output.o
CardStateConfirm                                  output.o
CardStatus                                        output.o
CardTransmit                                      output.o
CloseUSB                                          output.o
DES_SPtrans                                       output.o
DES_cfb64_encrypt                                 output.o
DES_cfb_encrypt                                   output.o
DES_check_key_parity                              output.o
DES_decrypt3                                      output.o
DES_ecb3_encrypt                                  output.o
DES_ecb_encrypt                                   output.o
DES_ede3_cbc_encrypt                              output.o
DES_ede3_cfb64_encrypt                            output.o
DES_ede3_cfb_encrypt                              output.o
DES_ede3_ofb64_encrypt                            output.o
DES_encrypt1                                      output.o
DES_encrypt2                                      output.o
DES_encrypt3                                      output.o
DES_is_weak_key                                   output.o
DES_key_sched                                     output.o
DES_ncbc_encrypt                                  output.o
DES_ofb64_encrypt                                 output.o
DES_options                                       output.o
DES_random_key                                    output.o
DES_set_key                                       output.o
DES_set_key_checked                               output.o
DES_set_key_unchecked                             output.o
DES_set_odd_parity                                output.o
DES_xcbc_encrypt                                  output.o
DH_OpenSSL                                        output.o
DH_check                                          output.o
DH_check_pub_key                                  output.o
DH_compute_key                                    output.o
DH_free                                           output.o
DH_generate_key                                   output.o
DH_generate_parameters_ex                         output.o
DH_get_default_method                             output.o
DH_get_ex_data                                    output.o
DH_get_ex_new_index                               output.o
DH_new                                            output.o
DH_new_method                                     output.o
DH_set_default_method                             output.o
DH_set_ex_data                                    output.o
DH_set_method                                     output.o
DH_size                                           output.o
DH_up_ref                                         output.o
DH_version                                        output.o
DHparams_dup                                      output.o
DHparams_it                                       output.o
DHparams_print                                    output.o
DI                                                output.o
DIRECTORYSTRING_free                              output.o
DIRECTORYSTRING_it                                output.o
DIRECTORYSTRING_new                               output.o
DISPLAYTEXT_free                                  output.o
DISPLAYTEXT_it                                    output.o
DISPLAYTEXT_new                                   output.o
DIST_POINT_NAME_free                              output.o
DIST_POINT_NAME_it                                output.o
DIST_POINT_NAME_new                               output.o
DIST_POINT_free                                   output.o
DIST_POINT_it                                     output.o
DIST_POINT_new                                    output.o
DIST_POINT_set_dpname                             output.o
DSAPrivateKey_it                                  output.o
DSAPublicKey_it                                   output.o
DSA_OpenSSL                                       output.o
DSA_SIG_free                                      output.o
DSA_SIG_it                                        output.o
DSA_SIG_new                                       output.o
DSA_do_sign                                       output.o
DSA_do_verify                                     output.o
DSA_dup_DH                                        output.o
DSA_free                                          output.o
DSA_generate_key                                  output.o
DSA_generate_parameters_ex                        output.o
DSA_get_default_method                            output.o
DSA_get_ex_data                                   output.o
DSA_get_ex_new_index                              output.o
DSA_new                                           output.o
DSA_new_method                                    output.o
DSA_set_default_method                            output.o
DSA_set_ex_data                                   output.o
DSA_set_method                                    output.o
DSA_sign                                          output.o
DSA_sign_setup                                    output.o
DSA_size                                          output.o
DSA_up_ref                                        output.o
DSA_verify                                        output.o
DSA_version                                       output.o
DSAparams_dup                                     output.o
DSAparams_it                                      output.o
DSO_METHOD_null                                   output.o
DSO_METHOD_openssl                                output.o
DSO_bind_func                                     output.o
DSO_bind_var                                      output.o
DSO_convert_filename                              output.o
DSO_ctrl                                          output.o
DSO_flags                                         output.o
DSO_free                                          output.o
DSO_get_default_method                            output.o
DSO_get_filename                                  output.o
DSO_get_loaded_filename                           output.o
DSO_get_method                                    output.o
DSO_global_lookup                                 output.o
DSO_load                                          output.o
DSO_merge                                         output.o
DSO_new                                           output.o
DSO_new_method                                    output.o
DSO_pathbyaddr                                    output.o
DSO_set_default_method                            output.o
DSO_set_filename                                  output.o
DSO_set_method                                    output.o
DSO_set_name_converter                            output.o
DSO_up_ref                                        output.o
DelElem                                           output.o
DestroyAttribute                                  output.o
DestroyElem                                       output.o
DestroyList                                       output.o
DestroySessionData                                output.o
DestroySlotData                                   output.o
DestroyTlvData                                    output.o
DestroyTokenData                                  output.o
ECDH_OpenSSL                                      output.o
ECDH_compute_key                                  output.o
ECDH_get_default_method                           output.o
ECDH_get_ex_data                                  output.o
ECDH_get_ex_new_index                             output.o
ECDH_set_default_method                           output.o
ECDH_set_ex_data                                  output.o
ECDH_set_method                                   output.o
ECDH_version                                      output.o
ECDSA_OpenSSL                                     output.o
ECDSA_SIG_free                                    output.o
ECDSA_SIG_it                                      output.o
ECDSA_SIG_new                                     output.o
ECDSA_do_sign                                     output.o
ECDSA_do_sign_ex                                  output.o
ECDSA_do_verify                                   output.o
ECDSA_get_default_method                          output.o
ECDSA_get_ex_data                                 output.o
ECDSA_get_ex_new_index                            output.o
ECDSA_set_default_method                          output.o
ECDSA_set_ex_data                                 output.o
ECDSA_set_method                                  output.o
ECDSA_sign                                        output.o
ECDSA_sign_ex                                     output.o
ECDSA_sign_setup                                  output.o
ECDSA_size                                        output.o
ECDSA_verify                                      output.o
ECDSA_version                                     output.o
ECPARAMETERS_free                                 output.o
ECPARAMETERS_it                                   output.o
ECPARAMETERS_new                                  output.o
ECPKPARAMETERS_free                               output.o
ECPKPARAMETERS_it                                 output.o
ECPKPARAMETERS_new                                output.o
ECPKParameters_print                              output.o
ECParameters_print                                output.o
EC_EX_DATA_clear_free_all_data                    output.o
EC_EX_DATA_clear_free_data                        output.o
EC_EX_DATA_free_all_data                          output.o
EC_EX_DATA_free_data                              output.o
EC_EX_DATA_get_data                               output.o
EC_EX_DATA_set_data                               output.o
EC_GF2m_simple_method                             output.o
EC_GFp_mont_method                                output.o
EC_GFp_nist_method                                output.o
EC_GFp_simple_method                              output.o
EC_GROUP_check_discriminant                       output.o
EC_GROUP_clear_free                               output.o
EC_GROUP_cmp                                      output.o
EC_GROUP_copy                                     output.o
EC_GROUP_dup                                      output.o
EC_GROUP_free                                     output.o
EC_GROUP_get0_generator                           output.o
EC_GROUP_get0_seed                                output.o
EC_GROUP_get_asn1_flag                            output.o
EC_GROUP_get_basis_type                           output.o
EC_GROUP_get_cofactor                             output.o
EC_GROUP_get_curve_GF2m                           output.o
EC_GROUP_get_curve_GFp                            output.o
EC_GROUP_get_curve_name                           output.o
EC_GROUP_get_degree                               output.o
EC_GROUP_get_order                                output.o
EC_GROUP_get_pentanomial_basis                    output.o
EC_GROUP_get_point_conversion_form                output.o
EC_GROUP_get_seed_len                             output.o
EC_GROUP_get_trinomial_basis                      output.o
EC_GROUP_have_precompute_mult                     output.o
EC_GROUP_method_of                                output.o
EC_GROUP_new                                      output.o
EC_GROUP_new_by_curve_name                        output.o
EC_GROUP_new_curve_GF2m                           output.o
EC_GROUP_new_curve_GFp                            output.o
EC_GROUP_precompute_mult                          output.o
EC_GROUP_set_asn1_flag                            output.o
EC_GROUP_set_curve_GF2m                           output.o
EC_GROUP_set_curve_GFp                            output.o
EC_GROUP_set_curve_name                           output.o
EC_GROUP_set_generator                            output.o
EC_GROUP_set_point_conversion_form                output.o
EC_GROUP_set_seed                                 output.o
EC_KEY_check_key                                  output.o
EC_KEY_copy                                       output.o
EC_KEY_dup                                        output.o
EC_KEY_free                                       output.o
EC_KEY_generate_key                               output.o
EC_KEY_get0_group                                 output.o
EC_KEY_get0_private_key                           output.o
EC_KEY_get0_public_key                            output.o
EC_KEY_get_conv_form                              output.o
EC_KEY_get_enc_flags                              output.o
EC_KEY_get_key_method_data                        output.o
EC_KEY_insert_key_method_data                     output.o
EC_KEY_new                                        output.o
EC_KEY_new_by_curve_name                          output.o
EC_KEY_precompute_mult                            output.o
EC_KEY_print                                      output.o
EC_KEY_set_asn1_flag                              output.o
EC_KEY_set_conv_form                              output.o
EC_KEY_set_enc_flags                              output.o
EC_KEY_set_group                                  output.o
EC_KEY_set_private_key                            output.o
EC_KEY_set_public_key                             output.o
EC_KEY_up_ref                                     output.o
EC_METHOD_get_field_type                          output.o
EC_POINT_add                                      output.o
EC_POINT_bn2point                                 output.o
EC_POINT_clear_free                               output.o
EC_POINT_cmp                                      output.o
EC_POINT_copy                                     output.o
EC_POINT_dbl                                      output.o
EC_POINT_dup                                      output.o
EC_POINT_free                                     output.o
EC_POINT_get_Jprojective_coordinates_GFp          output.o
EC_POINT_get_affine_coordinates_GF2m              output.o
EC_POINT_get_affine_coordinates_GFp               output.o
EC_POINT_hex2point                                output.o
EC_POINT_invert                                   output.o
EC_POINT_is_at_infinity                           output.o
EC_POINT_is_on_curve                              output.o
EC_POINT_make_affine                              output.o
EC_POINT_method_of                                output.o
EC_POINT_mul                                      output.o
EC_POINT_new                                      output.o
EC_POINT_oct2point                                output.o
EC_POINT_point2bn                                 output.o
EC_POINT_point2hex                                output.o
EC_POINT_point2oct                                output.o
EC_POINT_set_Jprojective_coordinates_GFp          output.o
EC_POINT_set_affine_coordinates_GF2m              output.o
EC_POINT_set_affine_coordinates_GFp               output.o
EC_POINT_set_compressed_coordinates_GF2m          output.o
EC_POINT_set_compressed_coordinates_GFp           output.o
EC_POINT_set_to_infinity                          output.o
EC_POINTs_make_affine                             output.o
EC_POINTs_mul                                     output.o
EC_PRIVATEKEY_free                                output.o
EC_PRIVATEKEY_it                                  output.o
EC_PRIVATEKEY_new                                 output.o
EC_get_builtin_curves                             output.o
EDIPARTYNAME_free                                 output.o
EDIPARTYNAME_it                                   output.o
EDIPARTYNAME_new                                  output.o
EHDestroyEventHandler                             output.o
EHInitEventHandler                                output.o
EHStatusHandler                                   output.o
ERR_add_error_data                                output.o
ERR_clear_error                                   output.o
ERR_error_string                                  output.o
ERR_error_string_n                                output.o
ERR_free_strings                                  output.o
ERR_func_error_string                             output.o
ERR_get_err_state_table                           output.o
ERR_get_error                                     output.o
ERR_get_error_line                                output.o
ERR_get_error_line_data                           output.o
ERR_get_implementation                            output.o
ERR_get_next_error_library                        output.o
ERR_get_state                                     output.o
ERR_get_string_table                              output.o
ERR_lib_error_string                              output.o
ERR_load_ASN1_strings                             output.o
ERR_load_BIO_strings                              output.o
ERR_load_BN_strings                               output.o
ERR_load_BUF_strings                              output.o
ERR_load_CMS_strings                              output.o
ERR_load_COMP_strings                             output.o
ERR_load_CONF_strings                             output.o
ERR_load_CRYPTO_strings                           output.o
ERR_load_DH_strings                               output.o
ERR_load_DSA_strings                              output.o
ERR_load_DSO_strings                              output.o
ERR_load_ECDH_strings                             output.o
ERR_load_ECDSA_strings                            output.o
ERR_load_EC_strings                               output.o
ERR_load_ERR_strings                              output.o
ERR_load_EVP_strings                              output.o
ERR_load_OBJ_strings                              output.o
ERR_load_OCSP_strings                             output.o
ERR_load_PEM_strings                              output.o
ERR_load_PKCS12_strings                           output.o
ERR_load_PKCS7_strings                            output.o
ERR_load_RAND_strings                             output.o
ERR_load_RSA_strings                              output.o
ERR_load_TS_strings                               output.o
ERR_load_UI_strings                               output.o
ERR_load_X509V3_strings                           output.o
ERR_load_X509_strings                             output.o
ERR_load_crypto_strings                           output.o
ERR_load_strings                                  output.o
ERR_peek_error                                    output.o
ERR_peek_error_line                               output.o
ERR_peek_error_line_data                          output.o
ERR_peek_last_error                               output.o
ERR_peek_last_error_line                          output.o
ERR_peek_last_error_line_data                     output.o
ERR_pop_to_mark                                   output.o
ERR_print_errors                                  output.o
ERR_print_errors_cb                               output.o
ERR_put_error                                     output.o
ERR_reason_error_string                           output.o
ERR_release_err_state_table                       output.o
ERR_remove_state                                  output.o
ERR_remove_thread_state                           output.o
ERR_set_error_data                                output.o
ERR_set_implementation                            output.o
ERR_set_mark                                      output.o
ERR_unload_strings                                output.o
EVP_BytesToKey                                    output.o
EVP_CIPHER_CTX_block_size                         output.o
EVP_CIPHER_CTX_cipher                             output.o
EVP_CIPHER_CTX_cleanup                            output.o
EVP_CIPHER_CTX_clear_flags                        output.o
EVP_CIPHER_CTX_copy                               output.o
EVP_CIPHER_CTX_ctrl                               output.o
EVP_CIPHER_CTX_flags                              output.o
EVP_CIPHER_CTX_free                               output.o
EVP_CIPHER_CTX_get_app_data                       output.o
EVP_CIPHER_CTX_init                               output.o
EVP_CIPHER_CTX_iv_length                          output.o
EVP_CIPHER_CTX_key_length                         output.o
EVP_CIPHER_CTX_new                                output.o
EVP_CIPHER_CTX_nid                                output.o
EVP_CIPHER_CTX_rand_key                           output.o
EVP_CIPHER_CTX_set_app_data                       output.o
EVP_CIPHER_CTX_set_flags                          output.o
EVP_CIPHER_CTX_set_key_length                     output.o
EVP_CIPHER_CTX_set_padding                        output.o
EVP_CIPHER_CTX_test_flags                         output.o
EVP_CIPHER_asn1_to_param                          output.o
EVP_CIPHER_block_size                             output.o
EVP_CIPHER_do_all                                 output.o
EVP_CIPHER_do_all_sorted                          output.o
EVP_CIPHER_flags                                  output.o
EVP_CIPHER_get_asn1_iv                            output.o
EVP_CIPHER_iv_length                              output.o
EVP_CIPHER_key_length                             output.o
EVP_CIPHER_nid                                    output.o
EVP_CIPHER_param_to_asn1                          output.o
EVP_CIPHER_set_asn1_iv                            output.o
EVP_CIPHER_type                                   output.o
EVP_Cipher                                        output.o
EVP_CipherFinal                                   output.o
EVP_CipherFinal_ex                                output.o
EVP_CipherInit                                    output.o
EVP_CipherInit_ex                                 output.o
EVP_CipherUpdate                                  output.o
EVP_DecodeBlock                                   output.o
EVP_DecodeFinal                                   output.o
EVP_DecodeInit                                    output.o
EVP_DecodeUpdate                                  output.o
EVP_DecryptFinal                                  output.o
EVP_DecryptFinal_ex                               output.o
EVP_DecryptInit                                   output.o
EVP_DecryptInit_ex                                output.o
EVP_DecryptUpdate                                 output.o
EVP_Digest                                        output.o
EVP_DigestFinal                                   output.o
EVP_DigestFinal_ex                                output.o
EVP_DigestInit                                    output.o
EVP_DigestInit_ex                                 output.o
EVP_DigestSignFinal                               output.o
EVP_DigestSignInit                                output.o
EVP_DigestUpdate                                  output.o
EVP_DigestVerifyFinal                             output.o
EVP_DigestVerifyInit                              output.o
EVP_EncodeBlock                                   output.o
EVP_EncodeFinal                                   output.o
EVP_EncodeInit                                    output.o
EVP_EncodeUpdate                                  output.o
EVP_EncryptFinal                                  output.o
EVP_EncryptFinal_ex                               output.o
EVP_EncryptInit                                   output.o
EVP_EncryptInit_ex                                output.o
EVP_EncryptUpdate                                 output.o
EVP_MD_CTX_cleanup                                output.o
EVP_MD_CTX_clear_flags                            output.o
EVP_MD_CTX_copy                                   output.o
EVP_MD_CTX_copy_ex                                output.o
EVP_MD_CTX_create                                 output.o
EVP_MD_CTX_destroy                                output.o
EVP_MD_CTX_init                                   output.o
EVP_MD_CTX_md                                     output.o
EVP_MD_CTX_set_flags                              output.o
EVP_MD_CTX_test_flags                             output.o
EVP_MD_block_size                                 output.o
EVP_MD_do_all                                     output.o
EVP_MD_do_all_sorted                              output.o
EVP_MD_flags                                      output.o
EVP_MD_pkey_type                                  output.o
EVP_MD_size                                       output.o
EVP_MD_type                                       output.o
EVP_PBE_CipherInit                                output.o
EVP_PBE_alg_add                                   output.o
EVP_PBE_alg_add_type                              output.o
EVP_PBE_cleanup                                   output.o
EVP_PBE_find                                      output.o
EVP_PKCS82PKEY                                    output.o
EVP_PKEY2PKCS8                                    output.o
EVP_PKEY2PKCS8_broken                             output.o
EVP_PKEY_CTX_ctrl                                 output.o
EVP_PKEY_CTX_ctrl_str                             output.o
EVP_PKEY_CTX_dup                                  output.o
EVP_PKEY_CTX_free                                 output.o
EVP_PKEY_CTX_get0_peerkey                         output.o
EVP_PKEY_CTX_get0_pkey                            output.o
EVP_PKEY_CTX_get_app_data                         output.o
EVP_PKEY_CTX_get_cb                               output.o
EVP_PKEY_CTX_get_data                             output.o
EVP_PKEY_CTX_get_keygen_info                      output.o
EVP_PKEY_CTX_get_operation                        output.o
EVP_PKEY_CTX_new                                  output.o
EVP_PKEY_CTX_new_id                               output.o
EVP_PKEY_CTX_set0_keygen_info                     output.o
EVP_PKEY_CTX_set_app_data                         output.o
EVP_PKEY_CTX_set_cb                               output.o
EVP_PKEY_CTX_set_data                             output.o
EVP_PKEY_add1_attr                                output.o
EVP_PKEY_add1_attr_by_NID                         output.o
EVP_PKEY_add1_attr_by_OBJ                         output.o
EVP_PKEY_add1_attr_by_txt                         output.o
EVP_PKEY_asn1_add0                                output.o
EVP_PKEY_asn1_add_alias                           output.o
EVP_PKEY_asn1_copy                                output.o
EVP_PKEY_asn1_find                                output.o
EVP_PKEY_asn1_find_str                            output.o
EVP_PKEY_asn1_free                                output.o
EVP_PKEY_asn1_get0                                output.o
EVP_PKEY_asn1_get0_info                           output.o
EVP_PKEY_asn1_get_count                           output.o
EVP_PKEY_asn1_new                                 output.o
EVP_PKEY_asn1_set_ctrl                            output.o
EVP_PKEY_asn1_set_free                            output.o
EVP_PKEY_asn1_set_param                           output.o
EVP_PKEY_asn1_set_private                         output.o
EVP_PKEY_asn1_set_public                          output.o
EVP_PKEY_assign                                   output.o
EVP_PKEY_base_id                                  output.o
EVP_PKEY_bits                                     output.o
EVP_PKEY_cmp                                      output.o
EVP_PKEY_cmp_parameters                           output.o
EVP_PKEY_copy_parameters                          output.o
EVP_PKEY_decrypt                                  output.o
EVP_PKEY_decrypt_init                             output.o
EVP_PKEY_delete_attr                              output.o
EVP_PKEY_derive                                   output.o
EVP_PKEY_derive_init                              output.o
EVP_PKEY_derive_set_peer                          output.o
EVP_PKEY_encrypt                                  output.o
EVP_PKEY_encrypt_init                             output.o
EVP_PKEY_free                                     output.o
EVP_PKEY_get0                                     output.o
EVP_PKEY_get0_asn1                                output.o
EVP_PKEY_get1_DH                                  output.o
EVP_PKEY_get1_DSA                                 output.o
EVP_PKEY_get1_EC_KEY                              output.o
EVP_PKEY_get1_RSA                                 output.o
EVP_PKEY_get_attr                                 output.o
EVP_PKEY_get_attr_by_NID                          output.o
EVP_PKEY_get_attr_by_OBJ                          output.o
EVP_PKEY_get_attr_count                           output.o
EVP_PKEY_get_default_digest_nid                   output.o
EVP_PKEY_id                                       output.o
EVP_PKEY_keygen                                   output.o
EVP_PKEY_keygen_init                              output.o
EVP_PKEY_meth_add0                                output.o
EVP_PKEY_meth_find                                output.o
EVP_PKEY_meth_free                                output.o
EVP_PKEY_meth_new                                 output.o
EVP_PKEY_meth_set_cleanup                         output.o
EVP_PKEY_meth_set_copy                            output.o
EVP_PKEY_meth_set_ctrl                            output.o
EVP_PKEY_meth_set_decrypt                         output.o
EVP_PKEY_meth_set_derive                          output.o
EVP_PKEY_meth_set_encrypt                         output.o
EVP_PKEY_meth_set_init                            output.o
EVP_PKEY_meth_set_keygen                          output.o
EVP_PKEY_meth_set_paramgen                        output.o
EVP_PKEY_meth_set_sign                            output.o
EVP_PKEY_meth_set_signctx                         output.o
EVP_PKEY_meth_set_verify                          output.o
EVP_PKEY_meth_set_verify_recover                  output.o
EVP_PKEY_meth_set_verifyctx                       output.o
EVP_PKEY_missing_parameters                       output.o
EVP_PKEY_new                                      output.o
EVP_PKEY_new_mac_key                              output.o
EVP_PKEY_paramgen                                 output.o
EVP_PKEY_paramgen_init                            output.o
EVP_PKEY_print_params                             output.o
EVP_PKEY_print_private                            output.o
EVP_PKEY_print_public                             output.o
EVP_PKEY_save_parameters                          output.o
EVP_PKEY_set1_DH                                  output.o
EVP_PKEY_set1_DSA                                 output.o
EVP_PKEY_set1_EC_KEY                              output.o
EVP_PKEY_set1_RSA                                 output.o
EVP_PKEY_set_type                                 output.o
EVP_PKEY_set_type_str                             output.o
EVP_PKEY_sign                                     output.o
EVP_PKEY_sign_init                                output.o
EVP_PKEY_size                                     output.o
EVP_PKEY_type                                     output.o
EVP_PKEY_verify                                   output.o
EVP_PKEY_verify_init                              output.o
EVP_PKEY_verify_recover                           output.o
EVP_PKEY_verify_recover_init                      output.o
EVP_SignFinal                                     output.o
EVP_VerifyFinal                                   output.o
EVP_add_cipher                                    output.o
EVP_add_digest                                    output.o
EVP_aes_128_cbc                                   output.o
EVP_aes_128_cfb1                                  output.o
EVP_aes_128_cfb128                                output.o
EVP_aes_128_cfb8                                  output.o
EVP_aes_128_ecb                                   output.o
EVP_aes_128_ofb                                   output.o
EVP_aes_192_cbc                                   output.o
EVP_aes_192_cfb1                                  output.o
EVP_aes_192_cfb128                                output.o
EVP_aes_192_cfb8                                  output.o
EVP_aes_192_ecb                                   output.o
EVP_aes_192_ofb                                   output.o
EVP_aes_256_cbc                                   output.o
EVP_aes_256_cfb1                                  output.o
EVP_aes_256_cfb128                                output.o
EVP_aes_256_cfb8                                  output.o
EVP_aes_256_ecb                                   output.o
EVP_aes_256_ofb                                   output.o
EVP_bf_cbc                                        output.o
EVP_bf_cfb64                                      output.o
EVP_bf_ecb                                        output.o
EVP_bf_ofb                                        output.o
EVP_cast5_cbc                                     output.o
EVP_cast5_cfb64                                   output.o
EVP_cast5_ecb                                     output.o
EVP_cast5_ofb                                     output.o
EVP_cleanup                                       output.o
EVP_des_cbc                                       output.o
EVP_des_cfb1                                      output.o
EVP_des_cfb64                                     output.o
EVP_des_cfb8                                      output.o
EVP_des_ecb                                       output.o
EVP_des_ede                                       output.o
EVP_des_ede3                                      output.o
EVP_des_ede3_cbc                                  output.o
EVP_des_ede3_cfb1                                 output.o
EVP_des_ede3_cfb64                                output.o
EVP_des_ede3_cfb8                                 output.o
EVP_des_ede3_ecb                                  output.o
EVP_des_ede3_ofb                                  output.o
EVP_des_ede_cbc                                   output.o
EVP_des_ede_cfb64                                 output.o
EVP_des_ede_ecb                                   output.o
EVP_des_ede_ofb                                   output.o
EVP_des_ofb                                       output.o
EVP_desx_cbc                                      output.o
EVP_dss                                           output.o
EVP_dss1                                          output.o
EVP_ecdsa                                         output.o
EVP_get_cipherbyname                              output.o
EVP_get_digestbyname                              output.o
EVP_get_pw_prompt                                 output.o
EVP_idea_cbc                                      output.o
EVP_idea_cfb64                                    output.o
EVP_idea_ecb                                      output.o
EVP_idea_ofb                                      output.o
EVP_md4                                           output.o
EVP_md5                                           output.o
EVP_rc2_40_cbc                                    output.o
EVP_rc2_64_cbc                                    output.o
EVP_rc2_cbc                                       output.o
EVP_rc2_cfb64                                     output.o
EVP_rc2_ecb                                       output.o
EVP_rc2_ofb                                       output.o
EVP_rc4                                           output.o
EVP_rc4_40                                        output.o
EVP_read_pw_string                                output.o
EVP_read_pw_string_min                            output.o
EVP_ripemd160                                     output.o
EVP_set_pw_prompt                                 output.o
EVP_sha                                           output.o
EVP_sha1                                          output.o
EVP_sha224                                        output.o
EVP_sha256                                        output.o
EVP_sha384                                        output.o
EVP_sha512                                        output.o
EVP_version                                       output.o
EVP_whirlpool                                     output.o
EXTENDED_KEY_USAGE_free                           output.o
EXTENDED_KEY_USAGE_it                             output.o
EXTENDED_KEY_USAGE_new                            output.o
ExchangePPSData                                   output.o
FI                                                output.o
FindBaudRateTable                                 output.o
GENERAL_NAMES_free                                output.o
GENERAL_NAMES_it                                  output.o
GENERAL_NAMES_new                                 output.o
GENERAL_NAME_cmp                                  output.o
GENERAL_NAME_dup                                  output.o
GENERAL_NAME_free                                 output.o
GENERAL_NAME_get0_otherName                       output.o
GENERAL_NAME_get0_value                           output.o
GENERAL_NAME_it                                   output.o
GENERAL_NAME_new                                  output.o
GENERAL_NAME_print                                output.o
GENERAL_NAME_set0_othername                       output.o
GENERAL_NAME_set0_value                           output.o
GENERAL_SUBTREE_free                              output.o
GENERAL_SUBTREE_it                                output.o
GENERAL_SUBTREE_new                               output.o
GetAttrValType                                    output.o
GetBWICWIData                                     output.o
GetCardStatus                                     output.o
GetDirDataByTlv                                   output.o
GetElem                                           output.o
GetICCardData                                     output.o
GetIFSCData                                       output.o
GetLength                                         output.o
GetOdfDataByTlv                                   output.o
GetTlvByBuf                                       output.o
GetTokenDataByTlv                                 output.o
GetUlByByte                                       output.o
GetUlByTxt                                        output.o
GetValueData                                      output.o
GetVerByTex                                       output.o
HMAC                                              output.o
HMAC_CTX_cleanup                                  output.o
HMAC_CTX_copy                                     output.o
HMAC_CTX_init                                     output.o
HMAC_CTX_set_flags                                output.o
HMAC_Final                                        output.o
HMAC_Init                                         output.o
HMAC_Init_ex                                      output.o
HMAC_Update                                       output.o
HPSearchHotPluggables                             output.o
IDEA_version                                      output.o
IDMan_CheckCardStatus                             output.o
IDMan_CmCheckCRL                                  output.o
IDMan_CmChgRSA                                    output.o
IDMan_CmGetCertificateSign                        output.o
IDMan_CmGetDN                                     output.o
IDMan_CmGetPublicKey                              output.o
IDMan_CmMakeRand                                  output.o
IDMan_CmMkHash                                    output.o
IDMan_CmPadding                                   output.o
IDMan_CmPadding2                                  output.o
IDMan_EncryptByIndex                              output.o
IDMan_IPCheckCrlPkcX                              output.o
IDMan_IPCheckPKC                                  output.o
IDMan_IPCheckSignature                            output.o
IDMan_IPCrSignature                               output.o
IDMan_IPFinalize                                  output.o
IDMan_IPFinalizeReader                            output.o
IDMan_IPIdPassListMalloc                          output.o
IDMan_IPInitialize                                output.o
IDMan_IPInitializeReader                          output.o
IDMan_IPMkPublicKeyObj                            output.o
IDMan_IPMkRandHash                                output.o
IDMan_IPRetJudgment                               output.o
IDMan_IPSignatureVerify                           output.o
IDMan_IPgCIndexParamChk                           output.o
IDMan_IPgCParamChk                                output.o
IDMan_IPgIdxSParamChk                             output.o
IDMan_IPgSParamChk                                output.o
IDMan_IPgetCertIdxPKCS                            output.o
IDMan_IPgetCertPKCS                               output.o
IDMan_IPgetCertPkeyIdxPKCSx                       output.o
IDMan_IPgetCertPkeyPKCSx                          output.o
IDMan_IPgetCertPkeyPKCSy                          output.o
IDMan_IPgetHash                                   output.o
IDMan_IPgetMakeRandData                           output.o
IDMan_IPgetPrivateKey                             output.o
IDMan_IPgetPrivateKeyPKCSx                        output.o
IDMan_IPuAPKCS11IdxParamChk                       output.o
IDMan_IPuAPKCS11ParamChk                          output.o
IDMan_IPvSIdxParamChk                             output.o
IDMan_IPvSParamChk                                output.o
IDMan_PaddingParamChk                             output.o
IDMan_SCardConnect                                output.o
IDMan_SCardDisconnect                             output.o
IDMan_SCardEstablishContext                       output.o
IDMan_SCardListReaders                            output.o
IDMan_SCardReleaseContext                         output.o
IDMan_SCardSetBinay                               output.o
IDMan_SCardSizeLongToChar                         output.o
IDMan_SCardStatus                                 output.o
IDMan_SCardTransmit                               output.o
IDMan_StAtoi                                      output.o
IDMan_StAtol                                      output.o
IDMan_StFree                                      output.o
IDMan_StMalloc                                    output.o
IDMan_StMemcmp                                    output.o
IDMan_StMemcpy                                    output.o
IDMan_StMemset                                    output.o
IDMan_StReadSetData                               output.o
IDMan_StStrcat                                    output.o
IDMan_StStrchr                                    output.o
IDMan_StStrcmp                                    output.o
IDMan_StStrcpy                                    output.o
IDMan_StStrlen                                    output.o
IDMan_generateSignature                           output.o
IDMan_generateSignatureByIndex                    output.o
IDMan_getCertificate                              output.o
IDMan_getCertificateByIndex                       output.o
IDMan_getMemoryFree                               output.o
IDMan_getStaticPassword                           output.o
IDMan_userAuthPKCS11                              output.o
IDMan_userAuthPKCS11ByIndex                       output.o
IDMan_verifySignature                             output.o
IDMan_verifySignatureByIndex                      output.o
IFDHCloseChannel                                  output.o
IFDHControl                                       output.o
IFDHCreateChannel                                 output.o
IFDHGetCapabilities                               output.o
IFDHICCPresence                                   output.o
IFDHPowerICC                                      output.o
IFDHSetProtocolParameters                         output.o
IFDHTransmitToICC                                 output.o
ISSUING_DIST_POINT_free                           output.o
ISSUING_DIST_POINT_it                             output.o
ISSUING_DIST_POINT_new                            output.o
InitCryptoLibrary                                 output.o
InitLeaderCardProtocol                            output.o
InternalAuth                                      output.o
LONG_it                                           output.o
MD4_Final                                         output.o
MD4_Init                                          output.o
MD4_Transform                                     output.o
MD4_Update                                        output.o
MD4_version                                       output.o
MD5                                               output.o
MD5_Final                                         output.o
MD5_Init                                          output.o
MD5_Transform                                     output.o
MD5_Update                                        output.o
MD5_version                                       output.o
NAME_CONSTRAINTS_check                            output.o
NAME_CONSTRAINTS_free                             output.o
NAME_CONSTRAINTS_it                               output.o
NAME_CONSTRAINTS_new                              output.o
NCONF_WIN32                                       output.o
NCONF_default                                     output.o
NCONF_dump_bio                                    output.o
NCONF_free                                        output.o
NCONF_free_data                                   output.o
NCONF_get_number_e                                output.o
NCONF_get_section                                 output.o
NCONF_get_string                                  output.o
NCONF_load                                        output.o
NCONF_load_bio                                    output.o
NCONF_new                                         output.o
NETSCAPE_CERT_SEQUENCE_free                       output.o
NETSCAPE_CERT_SEQUENCE_it                         output.o
NETSCAPE_CERT_SEQUENCE_new                        output.o
NETSCAPE_SPKAC_free                               output.o
NETSCAPE_SPKAC_it                                 output.o
NETSCAPE_SPKAC_new                                output.o
NETSCAPE_SPKI_free                                output.o
NETSCAPE_SPKI_it                                  output.o
NETSCAPE_SPKI_new                                 output.o
NETSCAPE_SPKI_sign                                output.o
NETSCAPE_SPKI_verify                              output.o
NOTICEREF_free                                    output.o
NOTICEREF_it                                      output.o
NOTICEREF_new                                     output.o
OBJ_NAME_add                                      output.o
OBJ_NAME_cleanup                                  output.o
OBJ_NAME_do_all                                   output.o
OBJ_NAME_do_all_sorted                            output.o
OBJ_NAME_get                                      output.o
OBJ_NAME_init                                     output.o
OBJ_NAME_new_index                                output.o
OBJ_NAME_remove                                   output.o
OBJ_add_object                                    output.o
OBJ_add_sigid                                     output.o
OBJ_bsearch_                                      output.o
OBJ_bsearch_ex_                                   output.o
OBJ_cleanup                                       output.o
OBJ_cmp                                           output.o
OBJ_create                                        output.o
OBJ_create_objects                                output.o
OBJ_dup                                           output.o
OBJ_find_sigid_algs                               output.o
OBJ_find_sigid_by_algs                            output.o
OBJ_ln2nid                                        output.o
OBJ_new_nid                                       output.o
OBJ_nid2ln                                        output.o
OBJ_nid2obj                                       output.o
OBJ_nid2sn                                        output.o
OBJ_obj2nid                                       output.o
OBJ_obj2txt                                       output.o
OBJ_sigid_free                                    output.o
OBJ_sn2nid                                        output.o
OBJ_txt2nid                                       output.o
OBJ_txt2obj                                       output.o
OCSP_BASICRESP_free                               output.o
OCSP_BASICRESP_it                                 output.o
OCSP_BASICRESP_new                                output.o
OCSP_CERTID_free                                  output.o
OCSP_CERTID_it                                    output.o
OCSP_CERTID_new                                   output.o
OCSP_CERTSTATUS_free                              output.o
OCSP_CERTSTATUS_it                                output.o
OCSP_CERTSTATUS_new                               output.o
OCSP_CRLID_free                                   output.o
OCSP_CRLID_it                                     output.o
OCSP_CRLID_new                                    output.o
OCSP_ONEREQ_free                                  output.o
OCSP_ONEREQ_it                                    output.o
OCSP_ONEREQ_new                                   output.o
OCSP_REQINFO_free                                 output.o
OCSP_REQINFO_it                                   output.o
OCSP_REQINFO_new                                  output.o
OCSP_REQUEST_free                                 output.o
OCSP_REQUEST_it                                   output.o
OCSP_REQUEST_new                                  output.o
OCSP_RESPBYTES_free                               output.o
OCSP_RESPBYTES_it                                 output.o
OCSP_RESPBYTES_new                                output.o
OCSP_RESPDATA_free                                output.o
OCSP_RESPDATA_it                                  output.o
OCSP_RESPDATA_new                                 output.o
OCSP_RESPID_free                                  output.o
OCSP_RESPID_it                                    output.o
OCSP_RESPID_new                                   output.o
OCSP_RESPONSE_free                                output.o
OCSP_RESPONSE_it                                  output.o
OCSP_RESPONSE_new                                 output.o
OCSP_REVOKEDINFO_free                             output.o
OCSP_REVOKEDINFO_it                               output.o
OCSP_REVOKEDINFO_new                              output.o
OCSP_SERVICELOC_free                              output.o
OCSP_SERVICELOC_it                                output.o
OCSP_SERVICELOC_new                               output.o
OCSP_SIGNATURE_free                               output.o
OCSP_SIGNATURE_it                                 output.o
OCSP_SIGNATURE_new                                output.o
OCSP_SINGLERESP_free                              output.o
OCSP_SINGLERESP_it                                output.o
OCSP_SINGLERESP_new                               output.o
OPENSSL_NONPIC_relocated                          output.o
OPENSSL_asc2uni                                   output.o
OPENSSL_cleanse                                   output.o
OPENSSL_cpuid_setup                               output.o
OPENSSL_gmtime                                    output.o
OPENSSL_gmtime_adj                                output.o
OPENSSL_ia32cap_P                                 output.o
OPENSSL_ia32cap_loc                               output.o
OPENSSL_isservice                                 output.o
OPENSSL_showfatal                                 output.o
OPENSSL_stderr                                    output.o
OPENSSL_uni2asc                                   output.o
OSSL_DES_version                                  output.o
OSSL_libdes_version                               output.o
OTHERNAME_cmp                                     output.o
OTHERNAME_free                                    output.o
OTHERNAME_it                                      output.o
OTHERNAME_new                                     output.o
OpenSSLDie                                        output.o
OpenSSL_add_all_ciphers                           output.o
OpenSSL_add_all_digests                           output.o
OpenUSB                                           output.o
PBE2PARAM_free                                    output.o
PBE2PARAM_it                                      output.o
PBE2PARAM_new                                     output.o
PBEPARAM_free                                     output.o
PBEPARAM_it                                       output.o
PBEPARAM_new                                      output.o
PBKDF2PARAM_free                                  output.o
PBKDF2PARAM_it                                    output.o
PBKDF2PARAM_new                                   output.o
PEM_ASN1_read_bio                                 output.o
PEM_ASN1_write_bio                                output.o
PEM_bytes_read_bio                                output.o
PEM_def_callback                                  output.o
PEM_dek_info                                      output.o
PEM_do_header                                     output.o
PEM_get_EVP_CIPHER_INFO                           output.o
PEM_proc_type                                     output.o
PEM_read_bio                                      output.o
PEM_read_bio_CMS                                  output.o
PEM_read_bio_DHparams                             output.o
PEM_read_bio_DSAPrivateKey                        output.o
PEM_read_bio_DSA_PUBKEY                           output.o
PEM_read_bio_DSAparams                            output.o
PEM_read_bio_ECPKParameters                       output.o
PEM_read_bio_ECPrivateKey                         output.o
PEM_read_bio_EC_PUBKEY                            output.o
PEM_read_bio_NETSCAPE_CERT_SEQUENCE               output.o
PEM_read_bio_PKCS7                                output.o
PEM_read_bio_PKCS8                                output.o
PEM_read_bio_PKCS8_PRIV_KEY_INFO                  output.o
PEM_read_bio_PUBKEY                               output.o
PEM_read_bio_Parameters                           output.o
PEM_read_bio_PrivateKey                           output.o
PEM_read_bio_RSAPrivateKey                        output.o
PEM_read_bio_RSAPublicKey                         output.o
PEM_read_bio_RSA_PUBKEY                           output.o
PEM_read_bio_X509                                 output.o
PEM_read_bio_X509_CRL                             output.o
PEM_read_bio_X509_REQ                             output.o
PEM_version                                       output.o
PEM_write_bio                                     output.o
PEM_write_bio_ASN1_stream                         output.o
PEM_write_bio_CMS                                 output.o
PEM_write_bio_CMS_stream                          output.o
PEM_write_bio_DHparams                            output.o
PEM_write_bio_DSAPrivateKey                       output.o
PEM_write_bio_DSA_PUBKEY                          output.o
PEM_write_bio_DSAparams                           output.o
PEM_write_bio_ECPKParameters                      output.o
PEM_write_bio_ECPrivateKey                        output.o
PEM_write_bio_EC_PUBKEY                           output.o
PEM_write_bio_NETSCAPE_CERT_SEQUENCE              output.o
PEM_write_bio_PKCS7                               output.o
PEM_write_bio_PKCS8                               output.o
PEM_write_bio_PKCS8PrivateKey                     output.o
PEM_write_bio_PKCS8PrivateKey_nid                 output.o
PEM_write_bio_PKCS8_PRIV_KEY_INFO                 output.o
PEM_write_bio_PUBKEY                              output.o
PEM_write_bio_Parameters                          output.o
PEM_write_bio_PrivateKey                          output.o
PEM_write_bio_RSAPrivateKey                       output.o
PEM_write_bio_RSAPublicKey                        output.o
PEM_write_bio_RSA_PUBKEY                          output.o
PEM_write_bio_X509                                output.o
PEM_write_bio_X509_CRL                            output.o
PEM_write_bio_X509_REQ                            output.o
PEM_write_bio_X509_REQ_NEW                        output.o
PHGetProtocol                                     output.o
PHSetProtocol                                     output.o
PKCS12_AUTHSAFES_it                               output.o
PKCS12_BAGS_free                                  output.o
PKCS12_BAGS_it                                    output.o
PKCS12_BAGS_new                                   output.o
PKCS12_MAC_DATA_free                              output.o
PKCS12_MAC_DATA_it                                output.o
PKCS12_MAC_DATA_new                               output.o
PKCS12_MAKE_KEYBAG                                output.o
PKCS12_MAKE_SHKEYBAG                              output.o
PKCS12_PBE_add                                    output.o
PKCS12_PBE_keyivgen                               output.o
PKCS12_SAFEBAGS_it                                output.o
PKCS12_SAFEBAG_free                               output.o
PKCS12_SAFEBAG_it                                 output.o
PKCS12_SAFEBAG_new                                output.o
PKCS12_certbag2x509                               output.o
PKCS12_certbag2x509crl                            output.o
PKCS12_decrypt_skey                               output.o
PKCS12_free                                       output.o
PKCS12_it                                         output.o
PKCS12_item_decrypt_d2i                           output.o
PKCS12_item_i2d_encrypt                           output.o
PKCS12_item_pack_safebag                          output.o
PKCS12_key_gen_asc                                output.o
PKCS12_key_gen_uni                                output.o
PKCS12_new                                        output.o
PKCS12_pack_authsafes                             output.o
PKCS12_pack_p7data                                output.o
PKCS12_pack_p7encdata                             output.o
PKCS12_pbe_crypt                                  output.o
PKCS12_unpack_authsafes                           output.o
PKCS12_unpack_p7data                              output.o
PKCS12_unpack_p7encdata                           output.o
PKCS12_x5092certbag                               output.o
PKCS12_x509crl2certbag                            output.o
PKCS1_MGF1                                        output.o
PKCS5_PBE_add                                     output.o
PKCS5_PBE_keyivgen                                output.o
PKCS5_PBKDF2_HMAC                                 output.o
PKCS5_PBKDF2_HMAC_SHA1                            output.o
PKCS5_pbe2_set                                    output.o
PKCS5_pbe2_set_iv                                 output.o
PKCS5_pbe_set                                     output.o
PKCS5_pbe_set0_algor                              output.o
PKCS5_v2_PBE_keyivgen                             output.o
PKCS7_ATTR_SIGN_it                                output.o
PKCS7_ATTR_VERIFY_it                              output.o
PKCS7_DIGEST_free                                 output.o
PKCS7_DIGEST_it                                   output.o
PKCS7_DIGEST_new                                  output.o
PKCS7_ENCRYPT_free                                output.o
PKCS7_ENCRYPT_it                                  output.o
PKCS7_ENCRYPT_new                                 output.o
PKCS7_ENC_CONTENT_free                            output.o
PKCS7_ENC_CONTENT_it                              output.o
PKCS7_ENC_CONTENT_new                             output.o
PKCS7_ENVELOPE_free                               output.o
PKCS7_ENVELOPE_it                                 output.o
PKCS7_ENVELOPE_new                                output.o
PKCS7_ISSUER_AND_SERIAL_digest                    output.o
PKCS7_ISSUER_AND_SERIAL_free                      output.o
PKCS7_ISSUER_AND_SERIAL_it                        output.o
PKCS7_ISSUER_AND_SERIAL_new                       output.o
PKCS7_RECIP_INFO_free                             output.o
PKCS7_RECIP_INFO_get0_alg                         output.o
PKCS7_RECIP_INFO_it                               output.o
PKCS7_RECIP_INFO_new                              output.o
PKCS7_RECIP_INFO_set                              output.o
PKCS7_SIGNED_free                                 output.o
PKCS7_SIGNED_it                                   output.o
PKCS7_SIGNED_new                                  output.o
PKCS7_SIGNER_INFO_free                            output.o
PKCS7_SIGNER_INFO_get0_algs                       output.o
PKCS7_SIGNER_INFO_it                              output.o
PKCS7_SIGNER_INFO_new                             output.o
PKCS7_SIGNER_INFO_set                             output.o
PKCS7_SIGNER_INFO_sign                            output.o
PKCS7_SIGN_ENVELOPE_free                          output.o
PKCS7_SIGN_ENVELOPE_it                            output.o
PKCS7_SIGN_ENVELOPE_new                           output.o
PKCS7_add0_attrib_signing_time                    output.o
PKCS7_add1_attrib_digest                          output.o
PKCS7_add_attrib_content_type                     output.o
PKCS7_add_attrib_smimecap                         output.o
PKCS7_add_attribute                               output.o
PKCS7_add_certificate                             output.o
PKCS7_add_crl                                     output.o
PKCS7_add_recipient                               output.o
PKCS7_add_recipient_info                          output.o
PKCS7_add_signature                               output.o
PKCS7_add_signed_attribute                        output.o
PKCS7_add_signer                                  output.o
PKCS7_cert_from_signer_info                       output.o
PKCS7_content_new                                 output.o
PKCS7_ctrl                                        output.o
PKCS7_dataDecode                                  output.o
PKCS7_dataFinal                                   output.o
PKCS7_dataInit                                    output.o
PKCS7_dataVerify                                  output.o
PKCS7_digest_from_attributes                      output.o
PKCS7_dup                                         output.o
PKCS7_free                                        output.o
PKCS7_get_attribute                               output.o
PKCS7_get_issuer_and_serial                       output.o
PKCS7_get_signed_attribute                        output.o
PKCS7_get_signer_info                             output.o
PKCS7_get_smimecap                                output.o
PKCS7_it                                          output.o
PKCS7_new                                         output.o
PKCS7_print_ctx                                   output.o
PKCS7_set0_type_other                             output.o
PKCS7_set_attributes                              output.o
PKCS7_set_cipher                                  output.o
PKCS7_set_content                                 output.o
PKCS7_set_digest                                  output.o
PKCS7_set_signed_attributes                       output.o
PKCS7_set_type                                    output.o
PKCS7_signatureVerify                             output.o
PKCS7_simple_smimecap                             output.o
PKCS7_stream                                      output.o
PKCS8_PRIV_KEY_INFO_free                          output.o
PKCS8_PRIV_KEY_INFO_it                            output.o
PKCS8_PRIV_KEY_INFO_new                           output.o
PKCS8_decrypt                                     output.o
PKCS8_encrypt                                     output.o
PKCS8_pkey_get0                                   output.o
PKCS8_pkey_set0                                   output.o
PKCS8_set_broken                                  output.o
PKEY_USAGE_PERIOD_free                            output.o
PKEY_USAGE_PERIOD_it                              output.o
PKEY_USAGE_PERIOD_new                             output.o
POLICYINFO_free                                   output.o
POLICYINFO_it                                     output.o
POLICYINFO_new                                    output.o
POLICYQUALINFO_free                               output.o
POLICYQUALINFO_it                                 output.o
POLICYQUALINFO_new                                output.o
POLICY_CONSTRAINTS_free                           output.o
POLICY_CONSTRAINTS_it                             output.o
POLICY_CONSTRAINTS_new                            output.o
POLICY_MAPPINGS_it                                output.o
POLICY_MAPPING_free                               output.o
POLICY_MAPPING_it                                 output.o
POLICY_MAPPING_new                                output.o
PROXY_CERT_INFO_EXTENSION_free                    output.o
PROXY_CERT_INFO_EXTENSION_it                      output.o
PROXY_CERT_INFO_EXTENSION_new                     output.o
PROXY_POLICY_free                                 output.o
PROXY_POLICY_it                                   output.o
PROXY_POLICY_new                                  output.o
PowerOff                                          output.o
PowerOn                                           output.o
RAND_SSLeay                                       output.o
RAND_add                                          output.o
RAND_bytes                                        output.o
RAND_cleanup                                      output.o
RAND_get_rand_method                              output.o
RAND_poll                                         output.o
RAND_pseudo_bytes                                 output.o
RAND_seed                                         output.o
RAND_set_rand_method                              output.o
RAND_status                                       output.o
RAND_version                                      output.o
RC2_cbc_encrypt                                   output.o
RC2_cfb64_encrypt                                 output.o
RC2_decrypt                                       output.o
RC2_ecb_encrypt                                   output.o
RC2_encrypt                                       output.o
RC2_ofb64_encrypt                                 output.o
RC2_set_key                                       output.o
RC2_version                                       output.o
RC4                                               output.o
RC4_options                                       output.o
RC4_set_key                                       output.o
RC4_version                                       output.o
RFAddReader                                       output.o
RFCheckReaderEventState                           output.o
RFReaderInfoById                                  output.o
RFRemoveReader                                    output.o
RIPEMD160_Final                                   output.o
RIPEMD160_Init                                    output.o
RIPEMD160_Transform                               output.o
RIPEMD160_Update                                  output.o
RMD160_version                                    output.o
RSAPrivateKey_dup                                 output.o
RSAPrivateKey_it                                  output.o
RSAPublicKey_dup                                  output.o
RSAPublicKey_it                                   output.o
RSA_PKCS1_SSLeay                                  output.o
RSA_X931_hash_id                                  output.o
RSA_blinding_off                                  output.o
RSA_blinding_on                                   output.o
RSA_flags                                         output.o
RSA_free                                          output.o
RSA_generate_key                                  output.o
RSA_generate_key_ex                               output.o
RSA_get_default_method                            output.o
RSA_get_ex_data                                   output.o
RSA_get_ex_new_index                              output.o
RSA_get_method                                    output.o
RSA_memory_lock                                   output.o
RSA_new                                           output.o
RSA_new_method                                    output.o
RSA_padding_add_PKCS1_OAEP                        output.o
RSA_padding_add_PKCS1_PSS                         output.o
RSA_padding_add_PKCS1_type_1                      output.o
RSA_padding_add_PKCS1_type_2                      output.o
RSA_padding_add_SSLv23                            output.o
RSA_padding_add_X931                              output.o
RSA_padding_add_none                              output.o
RSA_padding_check_PKCS1_OAEP                      output.o
RSA_padding_check_PKCS1_type_1                    output.o
RSA_padding_check_PKCS1_type_2                    output.o
RSA_padding_check_SSLv23                          output.o
RSA_padding_check_X931                            output.o
RSA_padding_check_none                            output.o
RSA_private_decrypt                               output.o
RSA_private_encrypt                               output.o
RSA_public_decrypt                                output.o
RSA_public_encrypt                                output.o
RSA_set_default_method                            output.o
RSA_set_ex_data                                   output.o
RSA_set_method                                    output.o
RSA_setup_blinding                                output.o
RSA_sign                                          output.o
RSA_size                                          output.o
RSA_up_ref                                        output.o
RSA_verify                                        output.o
RSA_verify_PKCS1_PSS                              output.o
RSA_version                                       output.o
ReadBinary                                        output.o
ReadDataT0                                        output.o
ReadUSB                                           output.o
ReceiveReply                                      output.o
SCardBeginTransaction                             output.o
SCardConnect                                      output.o
SCardDisconnect                                   output.o
SCardEndTransaction                               output.o
SCardEstablishContext                             output.o
SCardListReaders                                  output.o
SCardReleaseContext                               output.o
SCardStatus                                       output.o
SCardTransmit                                     output.o
SHA1                                              output.o
SHA1_Final                                        output.o
SHA1_Init                                         output.o
SHA1_Transform                                    output.o
SHA1_Update                                       output.o
SHA1_version                                      output.o
SHA224                                            output.o
SHA224_Final                                      output.o
SHA224_Init                                       output.o
SHA224_Update                                     output.o
SHA256                                            output.o
SHA256_Final                                      output.o
SHA256_Init                                       output.o
SHA256_Transform                                  output.o
SHA256_Update                                     output.o
SHA256_version                                    output.o
SHA384                                            output.o
SHA384_Final                                      output.o
SHA384_Init                                       output.o
SHA384_Update                                     output.o
SHA512                                            output.o
SHA512_Final                                      output.o
SHA512_Init                                       output.o
SHA512_Transform                                  output.o
SHA512_Update                                     output.o
SHA512_version                                    output.o
SHA_Final                                         output.o
SHA_Init                                          output.o
SHA_Transform                                     output.o
SHA_Update                                        output.o
SHA_version                                       output.o
SMIME_crlf_copy                                   output.o
SMIME_read_ASN1                                   output.o
SMIME_read_CMS                                    output.o
SMIME_text                                        output.o
SMIME_write_ASN1                                  output.o
SMIME_write_CMS                                   output.o
STACK_version                                     output.o
SXNETID_free                                      output.o
SXNETID_it                                        output.o
SXNETID_new                                       output.o
SXNET_add_id_INTEGER                              output.o
SXNET_add_id_asc                                  output.o
SXNET_add_id_ulong                                output.o
SXNET_free                                        output.o
SXNET_get_id_INTEGER                              output.o
SXNET_get_id_asc                                  output.o
SXNET_get_id_ulong                                output.o
SXNET_it                                          output.o
SXNET_new                                         output.o
Se4AddArpEntryList                                output.o
Se4AdjustTcpMss                                   output.o
Se4And                                            output.o
Se4BitToHex                                       output.o
Se4BroadcastMacAddress                            output.o
Se4BuildIcmpEchoPacket                            output.o
Se4CheckUnicastAddress                            output.o
Se4Cmp                                            output.o
Se4CmpArpEntry                                    output.o
Se4CmpArpWaitEntry                                output.o
Se4CmpIpCombineList                               output.o
Se4CombineIp                                      output.o
Se4FlushArpEntryList                              output.o
Se4FlushIpCombineList                             output.o
Se4FlushIpWaitList                                output.o
Se4Free                                           output.o
Se4FreeArpEntryList                               output.o
Se4FreeArpWaitList                                output.o
Se4FreeIpCombine                                  output.o
Se4FreeIpCombineList                              output.o
Se4FreeIpFragmentList                             output.o
Se4FreeIpHeaderInfo                               output.o
Se4FreeIpWait                                     output.o
Se4FreeIpWaitList                                 output.o
Se4GenerateSubnetMask                             output.o
Se4GenerateSubnetMask32                           output.o
Se4GetBroadcastAddress                            output.o
Se4GetHostAddress                                 output.o
Se4GetNetworkAddress                              output.o
Se4IPToStr                                        output.o
Se4IPToStr32                                      output.o
Se4IPToUINT                                       output.o
Se4Init                                           output.o
Se4InitArpEntryList                               output.o
Se4InitArpWaitList                                output.o
Se4InitIpCombineList                              output.o
Se4InitIpFragmentList                             output.o
Se4InitIpWaitList                                 output.o
Se4InsertIpCombine                                output.o
Se4InsertIpWait                                   output.o
Se4IpCheckChecksum                                output.o
Se4IpChecksum                                     output.o
Se4IsBroadcastAddress                             output.o
Se4IsInSameNetwork                                output.o
Se4IsSubnetMask                                   output.o
Se4IsZeroIP                                       output.o
Se4MacIpRelationKnown                             output.o
Se4MainProc                                       output.o
Se4Not                                            output.o
Se4Or                                             output.o
Se4ParseIpPacket                                  output.o
Se4ParseIpPacketICMPv4                            output.o
Se4ParseIpPacketUDPv4                             output.o
Se4ProcessArpWaitList                             output.o
Se4RecvArp                                        output.o
Se4RecvArpRequest                                 output.o
Se4RecvArpResponse                                output.o
Se4RecvEthPacket                                  output.o
Se4RecvIp                                         output.o
Se4RecvIpComplete                                 output.o
Se4SearchArpEntryList                             output.o
Se4SearchArpWaitList                              output.o
Se4SearchIpCombineList                            output.o
Se4SendArpDoProcess                               output.o
Se4SendArpRequest                                 output.o
Se4SendArpResponse                                output.o
Se4SendEthPacket                                  output.o
Se4SendIcmp                                       output.o
Se4SendIcmpEchoRequest                            output.o
Se4SendIcmpEchoResponse                           output.o
Se4SendIp                                         output.o
Se4SendIpFragment                                 output.o
Se4SendIpFragmentNow                              output.o
Se4SendRawIp                                      output.o
Se4SendUdp                                        output.o
Se4SendWaitingIpWait                              output.o
Se4StrToIP                                        output.o
Se4StrToIP32                                      output.o
Se4Tick                                           output.o
Se4UINTToIP                                       output.o
Se4ZeroIP                                         output.o
Se6AddGuestNode                                   output.o
Se6AddNeighborEntryList                           output.o
Se6And                                            output.o
Se6BroadcastMacAddress                            output.o
Se6BuildIcmpEchoPacket                            output.o
Se6CalcChecksum                                   output.o
Se6CheckIPItemStr                                 output.o
Se6CheckSubnetLength                              output.o
Se6CheckUnicastAddress                            output.o
Se6Cmp                                            output.o
Se6CmpIpCombineList                               output.o
Se6CmpNdpWaitEntry                                output.o
Se6CmpNeighborEntry                               output.o
Se6CombineIp                                      output.o
Se6FlushIpCombineList                             output.o
Se6FlushIpWaitList                                output.o
Se6FlushNeighborEntryList                         output.o
Se6Free                                           output.o
Se6FreeIpCombine                                  output.o
Se6FreeIpCombineList                              output.o
Se6FreeIpFragmentList                             output.o
Se6FreeIpHeaderInfo                               output.o
Se6FreeIpWait                                     output.o
Se6FreeIpWaitList                                 output.o
Se6FreeNdpWaitList                                output.o
Se6FreeNeighborEntryList                          output.o
Se6GenerateEui64Address                           output.o
Se6GenerateEui64GlobalAddress                     output.o
Se6GenerateEui64LocalAddress                      output.o
Se6GenerateMulticastMacAddress                    output.o
Se6GenerateSubnetMask                             output.o
Se6GetAllNodeMulticastAddr                        output.o
Se6GetAllRouterMulticastAddr                      output.o
Se6GetHostAddress                                 output.o
Se6GetIPAddrType                                  output.o
Se6GetPrefixAddress                               output.o
Se6GetSoliciationMulticastAddr                    output.o
Se6IPItemStrToChars                               output.o
Se6IPToStr                                        output.o
Se6Init                                           output.o
Se6InitIpCombineList                              output.o
Se6InitIpFragmentList                             output.o
Se6InitIpWaitList                                 output.o
Se6InitNdpWaitList                                output.o
Se6InitNeighborEntryList                          output.o
Se6InsertIpCombine                                output.o
Se6InsertIpWait                                   output.o
Se6IpChecksum                                     output.o
Se6IsGuestNode                                    output.o
Se6IsInSameNetwork                                output.o
Se6IsNetworkPrefixAddress                         output.o
Se6IsSubnetMask                                   output.o
Se6IsZeroIP                                       output.o
Se6LocalSubnet                                    output.o
Se6MacIpRelationKnown                             output.o
Se6MainProc                                       output.o
Se6Not                                            output.o
Se6Or                                             output.o
Se6ParseIpPacket                                  output.o
Se6ParseIpPacketICMPv6                            output.o
Se6ParseIpPacketUDPv6                             output.o
Se6ProcessNdpWaitList                             output.o
Se6RecvEthPacket                                  output.o
Se6RecvIp                                         output.o
Se6RecvIpComplete                                 output.o
Se6SearchIpCombineList                            output.o
Se6SearchNdpWaitList                              output.o
Se6SearchNeighborEntryList                        output.o
Se6SendEthPacket                                  output.o
Se6SendIcmp                                       output.o
Se6SendIcmpEchoRequest                            output.o
Se6SendIcmpEchoResponse                           output.o
Se6SendIcmpNeighborAdvertisement                  output.o
Se6SendIcmpNeighborSoliciation                    output.o
Se6SendIcmpRouterAdvertisement                    output.o
Se6SendIp                                         output.o
Se6SendIpFragment                                 output.o
Se6SendIpFragmentNow                              output.o
Se6SendNeighborSoliciation                        output.o
Se6SendNeighborSoliciationDoProcess               output.o
Se6SendRawIp                                      output.o
Se6SendUdp                                        output.o
Se6SendWaitingIpWait                              output.o
Se6StrToIP                                        output.o
Se6SubnetMaskToInt                                output.o
Se6Tick                                           output.o
Se6ZeroIP                                         output.o
SeAdd                                             output.o
SeAddBufStr                                       output.o
SeAdjustBufSize                                   output.o
SeB64CharToCode                                   output.o
SeB64CodeToChar                                   output.o
SeB64Decode                                       output.o
SeB64Encode                                       output.o
SeBSearch                                         output.o
SeBigNumToBuf                                     output.o
SeBigNumToStr                                     output.o
SeBinToBigNum                                     output.o
SeBinToStr                                        output.o
SeBinToStrEx                                      output.o
SeBioToBuf                                        output.o
SeBioToCert                                       output.o
SeBioToKey                                        output.o
SeBufToBigNum                                     output.o
SeBufToBio                                        output.o
SeBufToCert                                       output.o
SeBufToKey                                        output.o
SeBuildAndAddIPv6PacketOptionHeader               output.o
SeBuildICMPv6OptionValue                          output.o
SeBuildICMPv6Options                              output.o
SeBuildIPv6Packet                                 output.o
SeBuildIPv6PacketWithFragment                     output.o
SeCalcReplaceStrEx                                output.o
SeCertToBio                                       output.o
SeCertToBuf                                       output.o
SeCheckCert                                       output.o
SeCheckCertAndKey                                 output.o
SeCheckSignature                                  output.o
SeClearBuf                                        output.o
SeClearFifo                                       output.o
SeClone                                           output.o
SeCloneBuf                                        output.o
SeCloneCert                                       output.o
SeCloneKey                                        output.o
SeCloneList                                       output.o
SeCmp                                             output.o
SeCmpBuf                                          output.o
SeCmpEx                                           output.o
SeCompareCert                                     output.o
SeCompareStr                                      output.o
SeCopy                                            output.o
SeCopyStr                                         output.o
SeCopyToArray                                     output.o
SeDebug                                           output.o
SeDebugBin                                        output.o
SeDefaultTokenSplitChars                          output.o
SeDelete                                          output.o
SeDeleteAll                                       output.o
SeDeleteLock                                      output.o
SeDes3Decrypt                                     output.o
SeDes3Encrypt                                     output.o
SeDes3FreeKey                                     output.o
SeDes3NewKey                                      output.o
SeDes3RandKey                                     output.o
SeDesFreeKey                                      output.o
SeDesFreeKeyValue                                 output.o
SeDesNewKey                                       output.o
SeDesNewKeyValue                                  output.o
SeDesRandKey                                      output.o
SeDesRandKeyValue                                 output.o
SeDhCompute                                       output.o
SeDhFree                                          output.o
SeDhNew                                           output.o
SeDhNewGroup2                                     output.o
SeDumpBuf                                         output.o
SeEndWith                                         output.o
SeEndian16                                        output.o
SeEndian32                                        output.o
SeEndian64                                        output.o
SeError                                           output.o
SeEthAddSenderMacList                             output.o
SeEthDeleteOldSenderMacList                       output.o
SeEthFree                                         output.o
SeEthGenRandMacAddress                            output.o
SeEthGetInfo                                      output.o
SeEthGetNextRecvPacket                            output.o
SeEthIsSenderMacAddressExistsInList               output.o
SeEthNew                                          output.o
SeEthNicCallback                                  output.o
SeEthParseEthernetPacket                          output.o
SeEthSend                                         output.o
SeEthSendAdd                                      output.o
SeEthSendAll                                      output.o
SeFastSwap                                        output.o
SeFatal                                           output.o
SeFifoSize                                        output.o
SeFormat                                          output.o
SeFormatArgs                                      output.o
SeFormatEx                                        output.o
SeFree                                            output.o
SeFreeBio                                         output.o
SeFreeBuf                                         output.o
SeFreeBufWithoutBuffer                            output.o
SeFreeCert                                        output.o
SeFreeConfigEntryList                             output.o
SeFreeCrypto                                      output.o
SeFreeFifo                                        output.o
SeFreeKernel                                      output.o
SeFreeKey                                         output.o
SeFreeList                                        output.o
SeFreePKey                                        output.o
SeFreePacket                                      output.o
SeFreePacketList                                  output.o
SeFreePacketListWithoutBuffer                     output.o
SeFreeQueue                                       output.o
SeFreeStack                                       output.o
SeFreeToken                                       output.o
SeFreeX509                                        output.o
SeGetCertIssuerName                               output.o
SeGetCertMd5                                      output.o
SeGetCertSha1                                     output.o
SeGetCertSubjectName                              output.o
SeGetConfigBin                                    output.o
SeGetConfigBool                                   output.o
SeGetConfigEntry                                  output.o
SeGetConfigInt                                    output.o
SeGetConfigInt64                                  output.o
SeGetConfigStr                                    output.o
SeGetCurrentCpuId                                 output.o
SeGetKeyAndValue                                  output.o
SeGetKeyFromCert                                  output.o
SeGetNext                                         output.o
SeGetNextHeaderFromQueue                          output.o
SeGetNextInt                                      output.o
SeHashForSignBySHA1                               output.o
SeHexTo4Bit                                       output.o
SeHexToInt                                        output.o
SeHexToInt64                                      output.o
SeIkeBuild                                        output.o
SeIkeBuildCertPayload                             output.o
SeIkeBuildCertRequestPayload                      output.o
SeIkeBuildDataPayload                             output.o
SeIkeBuildDeletePayload                           output.o
SeIkeBuildIdPayload                               output.o
SeIkeBuildNoticePayload                           output.o
SeIkeBuildPayload                                 output.o
SeIkeBuildPayloadList                             output.o
SeIkeBuildProposalPayload                         output.o
SeIkeBuildSaPayload                               output.o
SeIkeBuildTransformPayload                        output.o
SeIkeBuildTransformValue                          output.o
SeIkeBuildTransformValueList                      output.o
SeIkeDecrypt                                      output.o
SeIkeEncrypt                                      output.o
SeIkeEncryptWithPadding                           output.o
SeIkeFree                                         output.o
SeIkeFreeCertPayload                              output.o
SeIkeFreeCertRequestPayload                       output.o
SeIkeFreeDataPayload                              output.o
SeIkeFreeDeletePayload                            output.o
SeIkeFreeIdPayload                                output.o
SeIkeFreeNoticePayload                            output.o
SeIkeFreePayload                                  output.o
SeIkeFreePayloadList                              output.o
SeIkeFreeProposalPayload                          output.o
SeIkeFreeSaPayload                                output.o
SeIkeFreeTransformPayload                         output.o
SeIkeFreeTransformValueList                       output.o
SeIkeGetFirstPayloadType                          output.o
SeIkeGetIPv4Address                               output.o
SeIkeGetIPv6Address                               output.o
SeIkeGetPayload                                   output.o
SeIkeGetPayloadNum                                output.o
SeIkeInitIPv4Address                              output.o
SeIkeInitIPv6Address                              output.o
SeIkeIpAddressToStr                               output.o
SeIkeIsZeroIP                                     output.o
SeIkeNew                                          output.o
SeIkeNewCertPayload                               output.o
SeIkeNewCertRequestPayload                        output.o
SeIkeNewDataPayload                               output.o
SeIkeNewDeletePayload                             output.o
SeIkeNewIdPayload                                 output.o
SeIkeNewNoticePayload                             output.o
SeIkeNewPayload                                   output.o
SeIkeNewProposalPayload                           output.o
SeIkeNewSaPayload                                 output.o
SeIkeNewTransformPayload                          output.o
SeIkeNewTransformValue                            output.o
SeIkeParse                                        output.o
SeIkeParseCertPayload                             output.o
SeIkeParseCertRequestPayload                      output.o
SeIkeParseDataPayload                             output.o
SeIkeParseDeletePayload                           output.o
SeIkeParseEx                                      output.o
SeIkeParseHeader                                  output.o
SeIkeParseIdPayload                               output.o
SeIkeParseNoticePayload                           output.o
SeIkeParsePayload                                 output.o
SeIkeParsePayloadList                             output.o
SeIkeParsePayloadListEx                           output.o
SeIkeParseProposalPayload                         output.o
SeIkeParseSaPayload                               output.o
SeIkeParseTransformPayload                        output.o
SeIkeParseTransformValueList                      output.o
SeIkePhase1CryptIdToKeySize                       output.o
SeIkePhase2CryptIdToKeySize                       output.o
SeIkeStrToPassword                                output.o
SeIkeStrToPhase1CryptId                           output.o
SeIkeStrToPhase1HashId                            output.o
SeIkeStrToPhase2CryptId                           output.o
SeIkeStrToPhase2HashId                            output.o
SeInfo                                            output.o
SeInitCrypto                                      output.o
SeInitKernel                                      output.o
SeInsert                                          output.o
SeInsertQueue                                     output.o
SeInsertQueueInt                                  output.o
SeInsertStr                                       output.o
SeIntFree                                         output.o
SeIntInit                                         output.o
SeIsAllLowerStr                                   output.o
SeIsAllUpperStr                                   output.o
SeIsBase64                                        output.o
SeIsBigEndian                                     output.o
SeIsCertSignedByCert                              output.o
SeIsCharInStr                                     output.o
SeIsEmptyStr                                      output.o
SeIsInList                                        output.o
SeIsInListStr                                     output.o
SeIsLittleEndian                                  output.o
SeIsSplitChar                                     output.o
SeIsZero                                          output.o
SeKeyToBio                                        output.o
SeKeyToBuf                                        output.o
SeLoad                                            output.o
SeLoadCert                                        output.o
SeLoadConfigEntryList                             output.o
SeLoadConfigEntryListFromBuf                      output.o
SeLoadKey                                         output.o
SeLock                                            output.o
SeLog                                             output.o
SeLogArgs                                         output.o
SeMacSha1                                         output.o
SeMacSha196                                       output.o
SeMacToStr                                        output.o
SeMakeCharArray                                   output.o
SeMalloc                                          output.o
SeMd5                                             output.o
SeMemSize                                         output.o
SeMemToBuf                                        output.o
SeNewBio                                          output.o
SeNewBuf                                          output.o
SeNewFifo                                         output.o
SeNewList                                         output.o
SeNewLock                                         output.o
SeNewQueue                                        output.o
SeNewStack                                        output.o
SeNormalizeCrlf                                   output.o
SeNullTokenList                                   output.o
SePKeyPasswordCallbackFunction                    output.o
SeParseICMPv6Options                              output.o
SeParseIPv6ExtHeader                              output.o
SeParseIPv6Packet                                 output.o
SeParsePacket                                     output.o
SeParsePacketL2                                   output.o
SeParsePacketL3ARPv4                              output.o
SeParsePacketL3IPv4                               output.o
SeParsePacketL3IPv6                               output.o
SeParseToken                                      output.o
SeParseTokenWithNullStr                           output.o
SePeekFifo                                        output.o
SePeekNext                                        output.o
SePop                                             output.o
SePush                                            output.o
SeQSort                                           output.o
SeRand                                            output.o
SeRand1                                           output.o
SeRand16                                          output.o
SeRand32                                          output.o
SeRand64                                          output.o
SeRand8                                           output.o
SeRandBuf                                         output.o
SeReAlloc                                         output.o
SeReadBuf                                         output.o
SeReadBufFromBuf                                  output.o
SeReadBufInt                                      output.o
SeReadBufInt64                                    output.o
SeReadBufStr                                      output.o
SeReadDump                                        output.o
SeReadFifo                                        output.o
SeReadNextLine                                    output.o
SeReadRemainBuf                                   output.o
SeReplaceListPointer                              output.o
SeReplaceStr                                      output.o
SeReplaceStrEx                                    output.o
SeReplaceStri                                     output.o
SeRsaGen                                          output.o
SeRsaPrivateDecrypt                               output.o
SeRsaPrivateEncrypt                               output.o
SeRsaPublicDecrypt                                output.o
SeRsaPublicEncrypt                                output.o
SeRsaPublicSize                                   output.o
SeRsaPublicToBin                                  output.o
SeRsaPublicToBuf                                  output.o
SeRsaSign                                         output.o
SeRsaSignWithPadding                              output.o
SeRsaSignWithSha1                                 output.o
SeRsaVerifyWithPadding                            output.o
SeRsaVerifyWithSha1                               output.o
SeSave                                            output.o
SeSaveCert                                        output.o
SeSaveKey                                         output.o
SeSearch                                          output.o
SeSearchStr                                       output.o
SeSearchStrEx                                     output.o
SeSearchStri                                      output.o
SeSecAddTimer                                     output.o
SeSecCalcKEYMAT                                   output.o
SeSecCalcKEYMATFull                               output.o
SeSecCalcKa                                       output.o
SeSecCalcP1Iv                                     output.o
SeSecCalcP1KeySet                                 output.o
SeSecCalcP2Iv                                     output.o
SeSecCheckIPsecSaExpires                          output.o
SeSecCheckIkeSaExpires                            output.o
SeSecCmpIkeSa                                     output.o
SeSecDeleteExpiredIPsecSa                         output.o
SeSecDeleteExpiredIkeSa                           output.o
SeSecDoInterval                                   output.o
SeSecEspRecvCallback                              output.o
SeSecForceReconnect                               output.o
SeSecFree                                         output.o
SeSecFreeIPsecSa                                  output.o
SeSecFreeIkeSa                                    output.o
SeSecFreeMain                                     output.o
SeSecFreeP1KeySet                                 output.o
SeSecFreeSaList                                   output.o
SeSecGenIPsecSASpi                                output.o
SeSecGenIkeSaInitCookie                           output.o
SeSecGenIkeSaMessageId                            output.o
SeSecGetIPsecSa                                   output.o
SeSecInit                                         output.o
SeSecInitMain                                     output.o
SeSecInitSaList                                   output.o
SeSecLifeSeconds64bit                             output.o
SeSecNewIPsecSa                                   output.o
SeSecNewIkeSa                                     output.o
SeSecNewSpi                                       output.o
SeSecProcessIkeSaMsg                              output.o
SeSecProcessIkeSaMsgInfo                          output.o
SeSecProcessIkeSaMsgPhase1                        output.o
SeSecProcessIkeSaMsgPhase2                        output.o
SeSecProcessMain                                  output.o
SeSecSearchIPsecSaBySpi                           output.o
SeSecSearchIkeSa                                  output.o
SeSecSearchIkeSaBySpi                             output.o
SeSecSendEsp                                      output.o
SeSecSendIPsecSaDeleteMsg                         output.o
SeSecSendIkeSaDeleteMsg                           output.o
SeSecSendIkeSaMsgInfo                             output.o
SeSecSendIkeSaMsgInfoSimple                       output.o
SeSecSendIkeSaMsgPhase2                           output.o
SeSecSendIkeSaMsgPhase2FinalHash                  output.o
SeSecSendUdp                                      output.o
SeSecSendVirtualIp                                output.o
SeSecSetRecvEspCallback                           output.o
SeSecSetRecvUdpCallback                           output.o
SeSecSetRecvVirtualIpCallback                     output.o
SeSecSetTimerCallback                             output.o
SeSecStartVpnConnect                              output.o
SeSecStrToAuthMethod                              output.o
SeSecTick                                         output.o
SeSecTimerCallback                                output.o
SeSecUdpRecvCallback                              output.o
SeSecVirtualIpRecvCallback                        output.o
SeSeekBuf                                         output.o
SeSetCmp                                          output.o
SeSetSortFlag                                     output.o
SeSha1                                            output.o
SeSort                                            output.o
SeStartWith                                       output.o
SeStrCat                                          output.o
SeStrCheckLen                                     output.o
SeStrCheckSize                                    output.o
SeStrCmp                                          output.o
SeStrCmpi                                         output.o
SeStrCpy                                          output.o
SeStrLen                                          output.o
SeStrLower                                        output.o
SeStrSize                                         output.o
SeStrToBin                                        output.o
SeStrToBinEx                                      output.o
SeStrToMac                                        output.o
SeStrUpper                                        output.o
SeStrnCmp                                         output.o
SeStrnCmpi                                        output.o
SeSwap                                            output.o
SeSwap16                                          output.o
SeSwap32                                          output.o
SeSwap64                                          output.o
SeSysFreeData                                     output.o
SeSysFreeLock                                     output.o
SeSysFreeTimer                                    output.o
SeSysGetCurrentCpuId                              output.o
SeSysGetPhysicalNicInfo                           output.o
SeSysGetTickCount                                 output.o
SeSysGetVirtualNicInfo                            output.o
SeSysLoadData                                     output.o
SeSysLock                                         output.o
SeSysLog                                          output.o
SeSysMemoryAlloc                                  output.o
SeSysMemoryFree                                   output.o
SeSysMemoryReAlloc                                output.o
SeSysNewLock                                      output.o
SeSysNewTimer                                     output.o
SeSysRsaSign                                      output.o
SeSysSaveData                                     output.o
SeSysSendPhysicalNic                              output.o
SeSysSendVirtualNic                               output.o
SeSysSetPhysicalNicRecvCallback                   output.o
SeSysSetTimer                                     output.o
SeSysSetVirtualNicRecvCallback                    output.o
SeSysUnlock                                       output.o
SeTick                                            output.o
SeTick64                                          output.o
SeTick64Internal                                  output.o
SeTimerAdjust                                     output.o
SeTimerCallback                                   output.o
SeTimerEntryCompare                               output.o
SeTimerFree                                       output.o
SeTimerNew                                        output.o
SeTimerSet                                        output.o
SeToArray                                         output.o
SeToHex                                           output.o
SeToHex64                                         output.o
SeToInt                                           output.o
SeToInt64                                         output.o
SeToLower                                         output.o
SeToStr                                           output.o
SeToStr3                                          output.o
SeToStr64                                         output.o
SeToUpper                                         output.o
SeTrim                                            output.o
SeTrimCopy                                        output.o
SeTrimCrlf                                        output.o
SeTrimLeft                                        output.o
SeTrimRight                                       output.o
SeUniqueToken                                     output.o
SeUnlock                                          output.o
SeVpn4ClientAddTimer                              output.o
SeVpn4ClientGetTick                               output.o
SeVpn4ClientSendEsp                               output.o
SeVpn4ClientSendUdp                               output.o
SeVpn4ClientSendVirtualIp                         output.o
SeVpn4ClientSetRecvEspCallback                    output.o
SeVpn4ClientSetRecvUdpCallback                    output.o
SeVpn4ClientSetRecvVirtualIpCallback              output.o
SeVpn4ClientSetTimerCallback                      output.o
SeVpn4DhcpBuildDhcpOptionList                     output.o
SeVpn4DhcpFreeOptionList                          output.o
SeVpn4DhcpOptionsToBuf                            output.o
SeVpn4DhcpParseOptionList                         output.o
SeVpn4DhcpParseOptionListMain                     output.o
SeVpn4DhcpSearchOption                            output.o
SeVpn4DhcpSendResponse                            output.o
SeVpn4DhcpServer                                  output.o
SeVpn4DoInterval                                  output.o
SeVpn4Free                                        output.o
SeVpn4FreeIPsec                                   output.o
SeVpn4IPsecInputFromPhysical                      output.o
SeVpn4IPsecInputFromVirtual                       output.o
SeVpn4IPsecMainProc                               output.o
SeVpn4IPsecSendPing                               output.o
SeVpn4Init                                        output.o
SeVpn4InitIPsec                                   output.o
SeVpn4InitSecConfig                               output.o
SeVpn4MainProc                                    output.o
SeVpn4NewDhcpOption                               output.o
SeVpn4RecvPacketPhysical                          output.o
SeVpn4RecvPacketVirtual                           output.o
SeVpn4SetTimer                                    output.o
SeVpn4Tick                                        output.o
SeVpn6ClientAddTimer                              output.o
SeVpn6ClientGetTick                               output.o
SeVpn6ClientSendEsp                               output.o
SeVpn6ClientSendUdp                               output.o
SeVpn6ClientSendVirtualIp                         output.o
SeVpn6ClientSetRecvEspCallback                    output.o
SeVpn6ClientSetRecvUdpCallback                    output.o
SeVpn6ClientSetRecvVirtualIpCallback              output.o
SeVpn6ClientSetTimerCallback                      output.o
SeVpn6DoInterval                                  output.o
SeVpn6Free                                        output.o
SeVpn6FreeIPsec                                   output.o
SeVpn6IPsecInputFromPhysical                      output.o
SeVpn6IPsecInputFromVirtual                       output.o
SeVpn6IPsecMainProc                               output.o
SeVpn6IPsecSendPing                               output.o
SeVpn6Init                                        output.o
SeVpn6InitIPsec                                   output.o
SeVpn6InitSecConfig                               output.o
SeVpn6MainProc                                    output.o
SeVpn6RecvPacketPhysical                          output.o
SeVpn6RecvPacketVirtual                           output.o
SeVpn6SetTimer                                    output.o
SeVpn6Tick                                        output.o
SeVpn6UpdateGuestOsIpAddress                      output.o
SeVpnAddTimer                                     output.o
SeVpnDoInterval                                   output.o
SeVpnEthRecvCallback                              output.o
SeVpnFree                                         output.o
SeVpnFreeConfig                                   output.o
SeVpnFreeIpStack                                  output.o
SeVpnInit                                         output.o
SeVpnInitIpStack                                  output.o
SeVpnLoadConfig                                   output.o
SeVpnMainFree                                     output.o
SeVpnMainHandler                                  output.o
SeVpnMainInit                                     output.o
SeVpnMainProcRecvEtherPacket                      output.o
SeVpnMainProcess                                  output.o
SeVpnRecvEtherPacket                              output.o
SeVpnRecvIpV4PacketCallback                       output.o
SeVpnRecvIpV6PacketCallback                       output.o
SeVpnSendEtherPacket                              output.o
SeVpnStatusChanged                                output.o
SeVpnTick                                         output.o
SeVpnTimerCallback                                output.o
SeWarning                                         output.o
SeWriteBuf                                        output.o
SeWriteBufBuf                                     output.o
SeWriteBufInt                                     output.o
SeWriteBufInt64                                   output.o
SeWriteBufLine                                    output.o
SeWriteBufStr                                     output.o
SeWriteFifo                                       output.o
SeX509ToCert                                      output.o
SeZero                                            output.o
SeZeroMalloc                                      output.o
SelectFileDF                                      output.o
SelectFileEF                                      output.o
SetATR                                            output.o
SetElem                                           output.o
SetLength                                         output.o
StIsdigit                                         output.o
StIsspace                                         output.o
T0XfrBlockCHAR                                    output.o
T0XfrBlockTPDU                                    output.o
T1NegociateIFSD                                   output.o
T1XfrBlockExtendedAPDU                            output.o
T1XfrBlockTPDU                                    output.o
TransHex2Tex                                      output.o
TransTex2Hex                                      output.o
TransmitCommand                                   output.o
TransmitPPS                                       output.o
UI_OpenSSL                                        output.o
UI_add_error_string                               output.o
UI_add_info_string                                output.o
UI_add_input_boolean                              output.o
UI_add_input_string                               output.o
UI_add_user_data                                  output.o
UI_add_verify_string                              output.o
UI_construct_prompt                               output.o
UI_create_method                                  output.o
UI_ctrl                                           output.o
UI_destroy_method                                 output.o
UI_dup_error_string                               output.o
UI_dup_info_string                                output.o
UI_dup_input_boolean                              output.o
UI_dup_input_string                               output.o
UI_dup_verify_string                              output.o
UI_free                                           output.o
UI_get0_action_string                             output.o
UI_get0_output_string                             output.o
UI_get0_result                                    output.o
UI_get0_result_string                             output.o
UI_get0_test_string                               output.o
UI_get0_user_data                                 output.o
UI_get_default_method                             output.o
UI_get_ex_data                                    output.o
UI_get_ex_new_index                               output.o
UI_get_input_flags                                output.o
UI_get_method                                     output.o
UI_get_result_maxsize                             output.o
UI_get_result_minsize                             output.o
UI_get_string_type                                output.o
UI_method_get_closer                              output.o
UI_method_get_flusher                             output.o
UI_method_get_opener                              output.o
UI_method_get_prompt_constructor                  output.o
UI_method_get_reader                              output.o
UI_method_get_writer                              output.o
UI_method_set_closer                              output.o
UI_method_set_flusher                             output.o
UI_method_set_opener                              output.o
UI_method_set_prompt_constructor                  output.o
UI_method_set_reader                              output.o
UI_method_set_writer                              output.o
UI_new                                            output.o
UI_new_method                                     output.o
UI_process                                        output.o
UI_set_default_method                             output.o
UI_set_ex_data                                    output.o
UI_set_method                                     output.o
UI_set_result                                     output.o
USERNOTICE_free                                   output.o
USERNOTICE_it                                     output.o
USERNOTICE_new                                    output.o
UTF8_getc                                         output.o
UTF8_putc                                         output.o
UpdateBinary                                      output.o
VPN_IPsec_Client_Start                            output.o
VPN_IPsec_Client_Stop                             output.o
VPN_IPsec_Free                                    output.o
VPN_IPsec_Init                                    output.o
Verify                                            output.o
WHIRLPOOL                                         output.o
WHIRLPOOL_BitUpdate                               output.o
WHIRLPOOL_Final                                   output.o
WHIRLPOOL_Init                                    output.o
WHIRLPOOL_Update                                  output.o
WriteUSB                                          output.o
X509V3_EXT_CRL_add_conf                           output.o
X509V3_EXT_CRL_add_nconf                          output.o
X509V3_EXT_REQ_add_conf                           output.o
X509V3_EXT_REQ_add_nconf                          output.o
X509V3_EXT_add                                    output.o
X509V3_EXT_add_alias                              output.o
X509V3_EXT_add_conf                               output.o
X509V3_EXT_add_list                               output.o
X509V3_EXT_add_nconf                              output.o
X509V3_EXT_add_nconf_sk                           output.o
X509V3_EXT_cleanup                                output.o
X509V3_EXT_conf                                   output.o
X509V3_EXT_conf_nid                               output.o
X509V3_EXT_d2i                                    output.o
X509V3_EXT_get                                    output.o
X509V3_EXT_get_nid                                output.o
X509V3_EXT_i2d                                    output.o
X509V3_EXT_nconf                                  output.o
X509V3_EXT_nconf_nid                              output.o
X509V3_EXT_print                                  output.o
X509V3_EXT_val_prn                                output.o
X509V3_NAME_from_section                          output.o
X509V3_add1_i2d                                   output.o
X509V3_add_standard_extensions                    output.o
X509V3_add_value                                  output.o
X509V3_add_value_bool                             output.o
X509V3_add_value_bool_nf                          output.o
X509V3_add_value_int                              output.o
X509V3_add_value_uchar                            output.o
X509V3_conf_free                                  output.o
X509V3_extensions_print                           output.o
X509V3_get_d2i                                    output.o
X509V3_get_section                                output.o
X509V3_get_string                                 output.o
X509V3_get_value_bool                             output.o
X509V3_get_value_int                              output.o
X509V3_parse_list                                 output.o
X509V3_section_free                               output.o
X509V3_set_conf_lhash                             output.o
X509V3_set_ctx                                    output.o
X509V3_set_nconf                                  output.o
X509V3_string_free                                output.o
X509_ALGORS_it                                    output.o
X509_ALGOR_dup                                    output.o
X509_ALGOR_free                                   output.o
X509_ALGOR_get0                                   output.o
X509_ALGOR_it                                     output.o
X509_ALGOR_new                                    output.o
X509_ALGOR_set0                                   output.o
X509_ATTRIBUTE_SET_it                             output.o
X509_ATTRIBUTE_count                              output.o
X509_ATTRIBUTE_create                             output.o
X509_ATTRIBUTE_create_by_NID                      output.o
X509_ATTRIBUTE_create_by_OBJ                      output.o
X509_ATTRIBUTE_create_by_txt                      output.o
X509_ATTRIBUTE_dup                                output.o
X509_ATTRIBUTE_free                               output.o
X509_ATTRIBUTE_get0_data                          output.o
X509_ATTRIBUTE_get0_object                        output.o
X509_ATTRIBUTE_get0_type                          output.o
X509_ATTRIBUTE_it                                 output.o
X509_ATTRIBUTE_new                                output.o
X509_ATTRIBUTE_set1_data                          output.o
X509_ATTRIBUTE_set1_object                        output.o
X509_CERT_AUX_free                                output.o
X509_CERT_AUX_it                                  output.o
X509_CERT_AUX_new                                 output.o
X509_CERT_AUX_print                               output.o
X509_CERT_PAIR_free                               output.o
X509_CERT_PAIR_it                                 output.o
X509_CERT_PAIR_new                                output.o
X509_CINF_free                                    output.o
X509_CINF_it                                      output.o
X509_CINF_new                                     output.o
X509_CRL_INFO_free                                output.o
X509_CRL_INFO_it                                  output.o
X509_CRL_INFO_new                                 output.o
X509_CRL_METHOD_free                              output.o
X509_CRL_METHOD_new                               output.o
X509_CRL_add0_revoked                             output.o
X509_CRL_add1_ext_i2d                             output.o
X509_CRL_add_ext                                  output.o
X509_CRL_cmp                                      output.o
X509_CRL_delete_ext                               output.o
X509_CRL_digest                                   output.o
X509_CRL_dup                                      output.o
X509_CRL_free                                     output.o
X509_CRL_get0_by_cert                             output.o
X509_CRL_get0_by_serial                           output.o
X509_CRL_get_ext                                  output.o
X509_CRL_get_ext_by_NID                           output.o
X509_CRL_get_ext_by_OBJ                           output.o
X509_CRL_get_ext_by_critical                      output.o
X509_CRL_get_ext_count                            output.o
X509_CRL_get_ext_d2i                              output.o
X509_CRL_get_meth_data                            output.o
X509_CRL_it                                       output.o
X509_CRL_match                                    output.o
X509_CRL_new                                      output.o
X509_CRL_set_default_method                       output.o
X509_CRL_set_meth_data                            output.o
X509_CRL_sign                                     output.o
X509_CRL_verify                                   output.o
X509_EXTENSIONS_it                                output.o
X509_EXTENSION_create_by_NID                      output.o
X509_EXTENSION_create_by_OBJ                      output.o
X509_EXTENSION_dup                                output.o
X509_EXTENSION_free                               output.o
X509_EXTENSION_get_critical                       output.o
X509_EXTENSION_get_data                           output.o
X509_EXTENSION_get_object                         output.o
X509_EXTENSION_it                                 output.o
X509_EXTENSION_new                                output.o
X509_EXTENSION_set_critical                       output.o
X509_EXTENSION_set_data                           output.o
X509_EXTENSION_set_object                         output.o
X509_LOOKUP_by_alias                              output.o
X509_LOOKUP_by_fingerprint                        output.o
X509_LOOKUP_by_issuer_serial                      output.o
X509_LOOKUP_by_subject                            output.o
X509_LOOKUP_ctrl                                  output.o
X509_LOOKUP_free                                  output.o
X509_LOOKUP_init                                  output.o
X509_LOOKUP_new                                   output.o
X509_LOOKUP_shutdown                              output.o
X509_NAME_ENTRIES_it                              output.o
X509_NAME_ENTRY_create_by_NID                     output.o
X509_NAME_ENTRY_create_by_OBJ                     output.o
X509_NAME_ENTRY_create_by_txt                     output.o
X509_NAME_ENTRY_dup                               output.o
X509_NAME_ENTRY_free                              output.o
X509_NAME_ENTRY_get_data                          output.o
X509_NAME_ENTRY_get_object                        output.o
X509_NAME_ENTRY_it                                output.o
X509_NAME_ENTRY_new                               output.o
X509_NAME_ENTRY_set_data                          output.o
X509_NAME_ENTRY_set_object                        output.o
X509_NAME_INTERNAL_it                             output.o
X509_NAME_add_entry                               output.o
X509_NAME_add_entry_by_NID                        output.o
X509_NAME_add_entry_by_OBJ                        output.o
X509_NAME_add_entry_by_txt                        output.o
X509_NAME_cmp                                     output.o
X509_NAME_delete_entry                            output.o
X509_NAME_digest                                  output.o
X509_NAME_dup                                     output.o
X509_NAME_entry_count                             output.o
X509_NAME_free                                    output.o
X509_NAME_get_entry                               output.o
X509_NAME_get_index_by_NID                        output.o
X509_NAME_get_index_by_OBJ                        output.o
X509_NAME_get_text_by_NID                         output.o
X509_NAME_get_text_by_OBJ                         output.o
X509_NAME_hash                                    output.o
X509_NAME_hash_old                                output.o
X509_NAME_it                                      output.o
X509_NAME_new                                     output.o
X509_NAME_oneline                                 output.o
X509_NAME_print                                   output.o
X509_NAME_print_ex                                output.o
X509_NAME_set                                     output.o
X509_OBJECT_free_contents                         output.o
X509_OBJECT_idx_by_subject                        output.o
X509_OBJECT_retrieve_by_subject                   output.o
X509_OBJECT_retrieve_match                        output.o
X509_OBJECT_up_ref_count                          output.o
X509_POLICY_NODE_print                            output.o
X509_PUBKEY_free                                  output.o
X509_PUBKEY_get                                   output.o
X509_PUBKEY_get0_param                            output.o
X509_PUBKEY_it                                    output.o
X509_PUBKEY_new                                   output.o
X509_PUBKEY_set                                   output.o
X509_PUBKEY_set0_param                            output.o
X509_PURPOSE_add                                  output.o
X509_PURPOSE_cleanup                              output.o
X509_PURPOSE_get0                                 output.o
X509_PURPOSE_get0_name                            output.o
X509_PURPOSE_get0_sname                           output.o
X509_PURPOSE_get_by_id                            output.o
X509_PURPOSE_get_by_sname                         output.o
X509_PURPOSE_get_count                            output.o
X509_PURPOSE_get_id                               output.o
X509_PURPOSE_get_trust                            output.o
X509_PURPOSE_set                                  output.o
X509_REQ_INFO_free                                output.o
X509_REQ_INFO_it                                  output.o
X509_REQ_INFO_new                                 output.o
X509_REQ_add1_attr                                output.o
X509_REQ_add1_attr_by_NID                         output.o
X509_REQ_add1_attr_by_OBJ                         output.o
X509_REQ_add1_attr_by_txt                         output.o
X509_REQ_add_extensions                           output.o
X509_REQ_add_extensions_nid                       output.o
X509_REQ_check_private_key                        output.o
X509_REQ_delete_attr                              output.o
X509_REQ_digest                                   output.o
X509_REQ_dup                                      output.o
X509_REQ_extension_nid                            output.o
X509_REQ_free                                     output.o
X509_REQ_get1_email                               output.o
X509_REQ_get_attr                                 output.o
X509_REQ_get_attr_by_NID                          output.o
X509_REQ_get_attr_by_OBJ                          output.o
X509_REQ_get_attr_count                           output.o
X509_REQ_get_extension_nids                       output.o
X509_REQ_get_extensions                           output.o
X509_REQ_get_pubkey                               output.o
X509_REQ_it                                       output.o
X509_REQ_new                                      output.o
X509_REQ_set_extension_nids                       output.o
X509_REQ_set_pubkey                               output.o
X509_REQ_set_subject_name                         output.o
X509_REQ_set_version                              output.o
X509_REQ_sign                                     output.o
X509_REQ_verify                                   output.o
X509_REVOKED_add1_ext_i2d                         output.o
X509_REVOKED_add_ext                              output.o
X509_REVOKED_delete_ext                           output.o
X509_REVOKED_free                                 output.o
X509_REVOKED_get_ext                              output.o
X509_REVOKED_get_ext_by_NID                       output.o
X509_REVOKED_get_ext_by_OBJ                       output.o
X509_REVOKED_get_ext_by_critical                  output.o
X509_REVOKED_get_ext_count                        output.o
X509_REVOKED_get_ext_d2i                          output.o
X509_REVOKED_it                                   output.o
X509_REVOKED_new                                  output.o
X509_SIG_free                                     output.o
X509_SIG_it                                       output.o
X509_SIG_new                                      output.o
X509_STORE_CTX_cleanup                            output.o
X509_STORE_CTX_free                               output.o
X509_STORE_CTX_get0_current_crl                   output.o
X509_STORE_CTX_get0_current_issuer                output.o
X509_STORE_CTX_get0_param                         output.o
X509_STORE_CTX_get0_parent_ctx                    output.o
X509_STORE_CTX_get0_policy_tree                   output.o
X509_STORE_CTX_get1_chain                         output.o
X509_STORE_CTX_get1_issuer                        output.o
X509_STORE_CTX_get_chain                          output.o
X509_STORE_CTX_get_current_cert                   output.o
X509_STORE_CTX_get_error                          output.o
X509_STORE_CTX_get_error_depth                    output.o
X509_STORE_CTX_get_ex_data                        output.o
X509_STORE_CTX_get_ex_new_index                   output.o
X509_STORE_CTX_get_explicit_policy                output.o
X509_STORE_CTX_init                               output.o
X509_STORE_CTX_new                                output.o
X509_STORE_CTX_purpose_inherit                    output.o
X509_STORE_CTX_set0_crls                          output.o
X509_STORE_CTX_set0_param                         output.o
X509_STORE_CTX_set_cert                           output.o
X509_STORE_CTX_set_chain                          output.o
X509_STORE_CTX_set_default                        output.o
X509_STORE_CTX_set_depth                          output.o
X509_STORE_CTX_set_error                          output.o
X509_STORE_CTX_set_ex_data                        output.o
X509_STORE_CTX_set_flags                          output.o
X509_STORE_CTX_set_purpose                        output.o
X509_STORE_CTX_set_time                           output.o
X509_STORE_CTX_set_trust                          output.o
X509_STORE_CTX_set_verify_cb                      output.o
X509_STORE_CTX_trusted_stack                      output.o
X509_STORE_add_cert                               output.o
X509_STORE_add_crl                                output.o
X509_STORE_add_lookup                             output.o
X509_STORE_free                                   output.o
X509_STORE_get1_certs                             output.o
X509_STORE_get1_crls                              output.o
X509_STORE_get_by_subject                         output.o
X509_STORE_new                                    output.o
X509_STORE_set1_param                             output.o
X509_STORE_set_depth                              output.o
X509_STORE_set_flags                              output.o
X509_STORE_set_purpose                            output.o
X509_STORE_set_trust                              output.o
X509_STORE_set_verify_cb                          output.o
X509_TRUST_add                                    output.o
X509_TRUST_cleanup                                output.o
X509_TRUST_get0                                   output.o
X509_TRUST_get0_name                              output.o
X509_TRUST_get_by_id                              output.o
X509_TRUST_get_count                              output.o
X509_TRUST_get_flags                              output.o
X509_TRUST_get_trust                              output.o
X509_TRUST_set                                    output.o
X509_TRUST_set_default                            output.o
X509_VAL_free                                     output.o
X509_VAL_it                                       output.o
X509_VAL_new                                      output.o
X509_VERIFY_PARAM_add0_policy                     output.o
X509_VERIFY_PARAM_add0_table                      output.o
X509_VERIFY_PARAM_clear_flags                     output.o
X509_VERIFY_PARAM_free                            output.o
X509_VERIFY_PARAM_get_depth                       output.o
X509_VERIFY_PARAM_get_flags                       output.o
X509_VERIFY_PARAM_inherit                         output.o
X509_VERIFY_PARAM_lookup                          output.o
X509_VERIFY_PARAM_new                             output.o
X509_VERIFY_PARAM_set1                            output.o
X509_VERIFY_PARAM_set1_name                       output.o
X509_VERIFY_PARAM_set1_policies                   output.o
X509_VERIFY_PARAM_set_depth                       output.o
X509_VERIFY_PARAM_set_flags                       output.o
X509_VERIFY_PARAM_set_purpose                     output.o
X509_VERIFY_PARAM_set_time                        output.o
X509_VERIFY_PARAM_set_trust                       output.o
X509_VERIFY_PARAM_table_cleanup                   output.o
X509_add1_ext_i2d                                 output.o
X509_add1_reject_object                           output.o
X509_add1_trust_object                            output.o
X509_add_ext                                      output.o
X509_alias_get0                                   output.o
X509_alias_set1                                   output.o
X509_check_akid                                   output.o
X509_check_ca                                     output.o
X509_check_issued                                 output.o
X509_check_private_key                            output.o
X509_check_purpose                                output.o
X509_check_trust                                  output.o
X509_cmp                                          output.o
X509_cmp_current_time                             output.o
X509_cmp_time                                     output.o
X509_delete_ext                                   output.o
X509_digest                                       output.o
X509_dup                                          output.o
X509_email_free                                   output.o
X509_find_by_issuer_and_serial                    output.o
X509_find_by_subject                              output.o
X509_free                                         output.o
X509_get0_pubkey_bitstr                           output.o
X509_get1_email                                   output.o
X509_get1_ocsp                                    output.o
X509_get_default_cert_area                        output.o
X509_get_default_cert_dir                         output.o
X509_get_default_cert_dir_env                     output.o
X509_get_default_cert_file                        output.o
X509_get_default_cert_file_env                    output.o
X509_get_default_private_dir                      output.o
X509_get_ex_data                                  output.o
X509_get_ex_new_index                             output.o
X509_get_ext                                      output.o
X509_get_ext_by_NID                               output.o
X509_get_ext_by_OBJ                               output.o
X509_get_ext_by_critical                          output.o
X509_get_ext_count                                output.o
X509_get_ext_d2i                                  output.o
X509_get_issuer_name                              output.o
X509_get_pubkey                                   output.o
X509_get_pubkey_parameters                        output.o
X509_get_serialNumber                             output.o
X509_get_subject_name                             output.o
X509_gmtime_adj                                   output.o
X509_issuer_and_serial_cmp                        output.o
X509_issuer_and_serial_hash                       output.o
X509_issuer_name_cmp                              output.o
X509_issuer_name_hash                             output.o
X509_issuer_name_hash_old                         output.o
X509_it                                           output.o
X509_keyid_get0                                   output.o
X509_keyid_set1                                   output.o
X509_new                                          output.o
X509_ocspid_print                                 output.o
X509_policy_check                                 output.o
X509_policy_level_get0_node                       output.o
X509_policy_level_node_count                      output.o
X509_policy_node_get0_parent                      output.o
X509_policy_node_get0_policy                      output.o
X509_policy_node_get0_qualifiers                  output.o
X509_policy_tree_free                             output.o
X509_policy_tree_get0_level                       output.o
X509_policy_tree_get0_policies                    output.o
X509_policy_tree_get0_user_policies               output.o
X509_policy_tree_level_count                      output.o
X509_print                                        output.o
X509_print_ex                                     output.o
X509_pubkey_digest                                output.o
X509_reject_clear                                 output.o
X509_set_ex_data                                  output.o
X509_sign                                         output.o
X509_signature_print                              output.o
X509_subject_name_cmp                             output.o
X509_subject_name_hash                            output.o
X509_subject_name_hash_old                        output.o
X509_supported_extension                          output.o
X509_time_adj                                     output.o
X509_time_adj_ex                                  output.o
X509_to_X509_REQ                                  output.o
X509_trust_clear                                  output.o
X509_verify                                       output.o
X509_verify_cert                                  output.o
X509_version                                      output.o
X509at_add1_attr                                  output.o
X509at_add1_attr_by_NID                           output.o
X509at_add1_attr_by_OBJ                           output.o
X509at_add1_attr_by_txt                           output.o
X509at_delete_attr                                output.o
X509at_get0_data_by_OBJ                           output.o
X509at_get_attr                                   output.o
X509at_get_attr_by_NID                            output.o
X509at_get_attr_by_OBJ                            output.o
X509at_get_attr_count                             output.o
X509v3_add_ext                                    output.o
X509v3_delete_ext                                 output.o
X509v3_get_ext                                    output.o
X509v3_get_ext_by_NID                             output.o
X509v3_get_ext_by_OBJ                             output.o
X509v3_get_ext_by_critical                        output.o
X509v3_get_ext_count                              output.o
X9_62_CHARACTERISTIC_TWO_free                     output.o
X9_62_CHARACTERISTIC_TWO_it                       output.o
X9_62_CHARACTERISTIC_TWO_new                      output.o
X9_62_CURVE_it                                    output.o
X9_62_FIELDID_it                                  output.o
X9_62_PENTANOMIAL_free                            output.o
X9_62_PENTANOMIAL_it                              output.o
X9_62_PENTANOMIAL_new                             output.o
ZLONG_it                                          output.o
_CONF_add_string                                  output.o
_CONF_free_data                                   output.o
_CONF_get_section                                 output.o
_CONF_get_section_values                          output.o
_CONF_get_string                                  output.o
_CONF_new_data                                    output.o
_CONF_new_section                                 output.o
__initfunc_acpi_init_global                       output.o
__initfunc_acpi_init_paral                        output.o
__initfunc_ata_init                               output.o
__initfunc_beep_init_msg                          output.o
__initfunc_cache_init_pass                        output.o
__initfunc_cache_init_pcpu                        output.o
__initfunc_cache_init_vcpu                        output.o
__initfunc_callrealmode_init_global               output.o
__initfunc_callrealmode_panic                     output.o
__initfunc_copy_minios                            output.o
__initfunc_core_init                              output.o
__initfunc_cpu_mmu_spt_init_global                output.o
__initfunc_cpu_mmu_spt_init_pcpu                  output.o
__initfunc_cpuid_init                             output.o
__initfunc_cpuid_pass_init                        output.o
__initfunc_create_pass_vm                         output.o
__initfunc_debug_ata_init                         output.o
__initfunc_debug_on_shift_key                     output.o
__initfunc_ehci_init                              output.o
__initfunc_end                                    output.o
__initfunc_exint_pass_init                        output.o
__initfunc_get_shiftflags                         output.o
__initfunc_gmm_pass_init                          output.o
__initfunc_idman_init                             output.o
__initfunc_idman_init_global                      output.o
__initfunc_idman_kernel_init                      output.o
__initfunc_ieee1394_init                          output.o
__initfunc_ieee1394_init_boot                     output.o
__initfunc_install_int0x15_hook                   output.o
__initfunc_int_init_global                        output.o
__initfunc_int_wakeup                             output.o
__initfunc_io_io_init                             output.o
__initfunc_io_iopass_init                         output.o
__initfunc_iommu_setup                            output.o
__initfunc_keyboard_init_msg                      output.o
__initfunc_localapic_init                         output.o
__initfunc_mm_init_global                         output.o
__initfunc_mmio_debug                             output.o
__initfunc_mmio_init                              output.o
__initfunc_msg_init_global                        output.o
__initfunc_msr_init                               output.o
__initfunc_msr_pass_init                          output.o
__initfunc_nmi_pass_init                          output.o
__initfunc_nmi_pass_init_pcpu                     output.o
__initfunc_panic_init_global                      output.o
__initfunc_panic_init_global3                     output.o
__initfunc_panic_init_msg                         output.o
__initfunc_panic_init_pcpu                        output.o
__initfunc_pci_init                               output.o
__initfunc_print_boot_msg                         output.o
__initfunc_printf_init_global                     output.o
__initfunc_pro100_init                            output.o
__initfunc_process_init_ap                        output.o
__initfunc_process_init_global                    output.o
__initfunc_process_wakeup                         output.o
__initfunc_random_init_config0                    output.o
__initfunc_random_init_global                     output.o
__initfunc_reboot_init_msg                        output.o
__initfunc_resume_pro1000                         output.o
__initfunc_segment_init_global                    output.o
__initfunc_serial_init_msg                        output.o
__initfunc_setiohooks                             output.o
__initfunc_sleep_init_global                      output.o
__initfunc_sleep_init_msg                         output.o
__initfunc_start                                  output.o
__initfunc_storage_io_initfunc                    output.o
__initfunc_storage_kernel_init                    output.o
__initfunc_suspend_pro1000                        output.o
__initfunc_svm_panic                              output.o
__initfunc_sx_init_pass_init                      output.o
__initfunc_thread_init_global                     output.o
__initfunc_thread_init_pcpu                       output.o
__initfunc_time_init_global                       output.o
__initfunc_time_init_global_status                output.o
__initfunc_time_init_msg                          output.o
__initfunc_time_init_pcpu                         output.o
__initfunc_timer_init_global                      output.o
__initfunc_tty_init_global                        output.o
__initfunc_tty_init_global2                       output.o
__initfunc_tty_init_msg                           output.o
__initfunc_uhci_init                              output.o
__initfunc_unmap_user_area                        output.o
__initfunc_vcpu_init_global                       output.o
__initfunc_vga_init                               output.o
__initfunc_virtualization_init_pcpu               output.o
__initfunc_vmmcall_boot_init                      output.o
__initfunc_vmmcall_dbgsh_init                     output.o
__initfunc_vmmcall_dbgsh_init_global              output.o
__initfunc_vmmcall_dbgsh_init_pcpu                output.o
__initfunc_vmmcall_iccard_init                    output.o
__initfunc_vmmcall_init                           output.o
__initfunc_vmmcall_log_init                       output.o
__initfunc_vmmcall_status_init                    output.o
__initfunc_vmmcall_status_init_global             output.o
__initfunc_vpn_kernel_init                        output.o
__initfunc_vpn_pro1000_init                       output.o
__initfunc_vramwrite_init_bsp                     output.o
__initfunc_vramwrite_init_msg                     output.o
__initfunc_vt_panic                               output.o
__initfunc_vt_register_status_callback            output.o
__initfunc_xsetbv_init                            output.o
__initfunc_xsetbv_pass_init                       output.o
__process_builtin                                 output.o
__process_builtin_end                             output.o
_dprintf                                          output.o
_dprintft                                         output.o
_shadow_DES_check_key                             output.o
a2d_ASN1_OBJECT                                   output.o
a2i_ASN1_INTEGER                                  output.o
a2i_ASN1_STRING                                   output.o
a2i_GENERAL_NAME                                  output.o
a2i_IPADDRESS                                     output.o
a2i_IPADDRESS_NC                                  output.o
a2i_ipadd                                         output.o
acpi_dsdt_parse                                   output.o
acpi_dsdt_system_state                            output.o
acpi_iohook                                       output.o
acpi_poweroff                                     output.o
acpi_reset                                        output.o
acpi_smi_hook                                     output.o
add_remap                                         output.o
aes_xts_init                                      output.o
ahci_config_read                                  output.o
ahci_config_write                                 output.o
ahci_new                                          output.o
alloc                                             output.o
alloc2                                            output.o
alloc_handler_descriptor                          output.o
alloc_page                                        output.o
alloc_pages                                       output.o
alloc_realmodemem                                 output.o
allocateNewAppID                                  output.o
allocateNewApplicationIdentifiers                 output.o
allocateNewVMID                                   output.o
ap_start_addr                                     output.o
apic_available                                    output.o
apinit_lock                                       output.o
apinit_procs                                      output.o
apinitproc0                                       output.o
app_pkey_methods                                  output.o
asm_vmlaunch_regs_32                              output.o
asm_vmlaunch_regs_64                              output.o
asm_vmresume_regs_32                              output.o
asm_vmresume_regs_64                              output.o
asm_vmrun_regs_32                                 output.o
asm_vmrun_regs_64                                 output.o
asn1_Finish                                       output.o
asn1_GetSequence                                  output.o
asn1_add_error                                    output.o
asn1_const_Finish                                 output.o
asn1_do_adb                                       output.o
asn1_do_lock                                      output.o
asn1_enc_free                                     output.o
asn1_enc_init                                     output.o
asn1_enc_restore                                  output.o
asn1_enc_save                                     output.o
asn1_ex_c2i                                       output.o
asn1_ex_i2c                                       output.o
asn1_get_choice_selector                          output.o
asn1_get_field_ptr                                output.o
asn1_set_choice_selector                          output.o
asn1_template_print_ctx                           output.o
assertion_failed                                  output.o
ata_ahci_mode                                     output.o
ata_bm_handle_command                             output.o
ata_bm_handle_device_specific                     output.o
ata_bm_handle_prd_table                           output.o
ata_bm_handle_status                              output.o
ata_bm_handler                                    output.o
ata_bm_handler_table                              output.o
ata_channel_lock                                  output.o
ata_channel_unlock                                output.o
ata_cmdblk_handler                                output.o
ata_cmdblk_handler_table                          output.o
ata_config_read                                   output.o
ata_config_write                                  output.o
ata_ctlblk_handler                                output.o
ata_ctlblk_handler_table                          output.o
ata_get_cmd_type                                  output.o
ata_handle_queued_status                          output.o
ata_init_io_handler                               output.o
ata_init_vendor                                   output.o
ata_set_bm_handler                                output.o
ata_set_cmdblk_handler                            output.o
ata_set_ctlblk_handler                            output.o
atapi_handle_cmd_packet                           output.o
atapi_handle_config_data                          output.o
atapi_handle_interrupt_reason                     output.o
atapi_handle_packet_data                          output.o
atapi_handle_pio_identify_packet                  output.o
auto_reboot                                       output.o
backtrace                                         output.o
beep_off                                          output.o
beep_on                                           output.o
beep_set_freq                                     output.o
bn_add_part_words                                 output.o
bn_add_words                                      output.o
bn_cmp_part_words                                 output.o
bn_cmp_words                                      output.o
bn_div_words                                      output.o
bn_dup_expand                                     output.o
bn_expand2                                        output.o
bn_mul_add_words                                  output.o
bn_mul_comba4                                     output.o
bn_mul_comba8                                     output.o
bn_mul_high                                       output.o
bn_mul_low_normal                                 output.o
bn_mul_low_recursive                              output.o
bn_mul_normal                                     output.o
bn_mul_part_recursive                             output.o
bn_mul_recursive                                  output.o
bn_mul_words                                      output.o
bn_sqr_comba4                                     output.o
bn_sqr_comba8                                     output.o
bn_sqr_normal                                     output.o
bn_sqr_recursive                                  output.o
bn_sqr_words                                      output.o
bn_sub_part_words                                 output.o
bn_sub_words                                      output.o
bss                                               output.o
c2i_ASN1_BIT_STRING                               output.o
c2i_ASN1_INTEGER                                  output.o
c2i_ASN1_OBJECT                                   output.o
cache_get_attr                                    output.o
cache_get_gmsr_amd                                output.o
cache_get_gmtrr                                   output.o
cache_get_gmtrr_attr                              output.o
cache_get_gmtrr_type                              output.o
cache_get_gmtrrcap                                output.o
cache_get_gpat                                    output.o
cache_set_gmsr_amd                                output.o
cache_set_gmtrr                                   output.o
cache_set_gpat                                    output.o
call_cpuid                                        output.o
call_initfunc                                     output.o
call_io                                           output.o
call_read_msr                                     output.o
call_write_msr                                    output.o
call_xsetbv                                       output.o
callfunc_and_getint                               output.o
callrealmode_bootcd_getstatus                     output.o
callrealmode_disk_readlba                         output.o
callrealmode_disk_readmbr                         output.o
callrealmode_end                                  output.o
callrealmode_endofcodeaddr                        output.o
callrealmode_getfontinfo                          output.o
callrealmode_getshiftflags                        output.o
callrealmode_getsysmemmap                         output.o
callrealmode_printmsg                             output.o
callrealmode_reboot                               output.o
callrealmode_setcursorpos                         output.o
callrealmode_setvideomode                         output.o
callrealmode_start                                output.o
callrealmode_start2                               output.o
callrealmode_startkernel32                        output.o
callrealmode_tcgbios                              output.o
callrealmode_usevcpu                              output.o
cancel_sleep                                      output.o
changePageStatus                                  output.o
check_defer                                       output.o
chelp_abort                                       output.o
chelp_bsearch                                     output.o
chelp_div_64_32_32                                output.o
chelp_div_64_32_64                                output.o
chelp_free                                        output.o
chelp_inited                                      output.o
chelp_isalnum                                     output.o
chelp_isalpha                                     output.o
chelp_isdigit                                     output.o
chelp_islower                                     output.o
chelp_isspace                                     output.o
chelp_isupper                                     output.o
chelp_isxdigit                                    output.o
chelp_malloc                                      output.o
chelp_memchr                                      output.o
chelp_memcmp                                      output.o
chelp_memcpy                                      output.o
chelp_memmove                                     output.o
chelp_memset                                      output.o
chelp_mod_64_32_32                                output.o
chelp_mul_64_64_64                                output.o
chelp_print                                       output.o
chelp_printf                                      output.o
chelp_qsort                                       output.o
chelp_realloc                                     output.o
chelp_snprintf                                    output.o
chelp_sprintf                                     output.o
chelp_strcat                                      output.o
chelp_strchr                                      output.o
chelp_strcmp                                      output.o
chelp_strcpy                                      output.o
chelp_stricmp                                     output.o
chelp_strlen                                      output.o
chelp_strncasecmp                                 output.o
chelp_strncmp                                     output.o
chelp_strncpy                                     output.o
chelp_strrchr                                     output.o
chelp_strtol                                      output.o
chelp_strtoul                                     output.o
chelp_strtoul_ex                                  output.o
chelp_swap                                        output.o
chelp_tolower                                     output.o
chelp_toupper                                     output.o
cleanse_ctr                                       output.o
clear_guest_status                                output.o
clflush_size                                      output.o
closePage                                         output.o
cmpxchg_gphys_l                                   output.o
cmpxchg_gphys_q                                   output.o
cmpxchg_hphys_l                                   output.o
cmpxchg_hphys_q                                   output.o
cms_Data_create                                   output.o
cms_DigestAlgorithm_find_ctx                      output.o
cms_DigestAlgorithm_init_bio                      output.o
cms_DigestAlgorithm_set                           output.o
cms_DigestedData_create                           output.o
cms_DigestedData_do_final                         output.o
cms_DigestedData_init_bio                         output.o
cms_EncryptedContent_init                         output.o
cms_EncryptedContent_init_bio                     output.o
cms_EncryptedData_init_bio                        output.o
cms_EnvelopedData_init_bio                        output.o
cms_SignedData_final                              output.o
cms_SignedData_init_bio                           output.o
cms_SignerIdentifier_cert_cmp                     output.o
cms_SignerIdentifier_get0_signer_id               output.o
cms_content_bio                                   output.o
cms_set1_SignerIdentifier                         output.o
config                                            output.o
copy_bootsector                                   output.o
core_init                                         output.o
core_io_handle_default                            output.o
core_io_modify_handler                            output.o
core_io_register_handler                          output.o
core_io_unregister_handler                        output.o
core_mm_read_guest_phys                           output.o
core_mm_write_guest_phys                          output.o
cpu_emul_cli                                      output.o
cpu_emul_cpuid                                    output.o
cpu_emul_hlt                                      output.o
cpu_emul_rdmsr                                    output.o
cpu_emul_realmode_int                             output.o
cpu_emul_sti                                      output.o
cpu_emul_wrmsr                                    output.o
cpu_emul_xsetbv                                   output.o
cpu_interpreter                                   output.o
cpu_mmu_get_pte                                   output.o
cpu_mmu_spt_clear_all                             output.o
cpu_mmu_spt_extern_mapsearch                      output.o
cpu_mmu_spt_init                                  output.o
cpu_mmu_spt_invalidate                            output.o
cpu_mmu_spt_map_1mb                               output.o
cpu_mmu_spt_pagefault                             output.o
cpu_mmu_spt_tlbflush                              output.o
cpu_mmu_spt_updatecr3                             output.o
cpu_seg_read_b                                    output.o
cpu_seg_read_l                                    output.o
cpu_seg_read_q                                    output.o
cpu_seg_read_w                                    output.o
cpu_seg_write_b                                   output.o
cpu_seg_write_l                                   output.o
cpu_seg_write_q                                   output.o
cpu_seg_write_w                                   output.o
cpu_stack_get                                     output.o
cpu_stack_pop                                     output.o
cpu_stack_push                                    output.o
cpu_stack_set                                     output.o
cpuinit_end                                       output.o
cpuinit_start                                     output.o
create_dom                                        output.o
crypt_sys_rsa_sign                                output.o
crypto_find                                       output.o
crypto_init                                       output.o
crypto_none_init                                  output.o
crypto_register                                   output.o
currentProtectedApplication                       output.o
currentRunningApplication                         output.o
curthread                                         output.o
d2i_ACCESS_DESCRIPTION                            output.o
d2i_ASN1_BIT_STRING                               output.o
d2i_ASN1_BMPSTRING                                output.o
d2i_ASN1_BOOLEAN                                  output.o
d2i_ASN1_ENUMERATED                               output.o
d2i_ASN1_GENERALIZEDTIME                          output.o
d2i_ASN1_GENERALSTRING                            output.o
d2i_ASN1_IA5STRING                                output.o
d2i_ASN1_INTEGER                                  output.o
d2i_ASN1_NULL                                     output.o
d2i_ASN1_OBJECT                                   output.o
d2i_ASN1_OCTET_STRING                             output.o
d2i_ASN1_PRINTABLE                                output.o
d2i_ASN1_PRINTABLESTRING                          output.o
d2i_ASN1_SEQUENCE_ANY                             output.o
d2i_ASN1_SET                                      output.o
d2i_ASN1_SET_ANY                                  output.o
d2i_ASN1_T61STRING                                output.o
d2i_ASN1_TIME                                     output.o
d2i_ASN1_TYPE                                     output.o
d2i_ASN1_UINTEGER                                 output.o
d2i_ASN1_UNIVERSALSTRING                          output.o
d2i_ASN1_UTCTIME                                  output.o
d2i_ASN1_UTF8STRING                               output.o
d2i_ASN1_VISIBLESTRING                            output.o
d2i_ASN1_bytes                                    output.o
d2i_ASN1_type_bytes                               output.o
d2i_AUTHORITY_INFO_ACCESS                         output.o
d2i_AUTHORITY_KEYID                               output.o
d2i_AutoPrivateKey                                output.o
d2i_BASIC_CONSTRAINTS                             output.o
d2i_CERTIFICATEPOLICIES                           output.o
d2i_CMS_ContentInfo                               output.o
d2i_CMS_bio                                       output.o
d2i_CRL_DIST_POINTS                               output.o
d2i_DHparams                                      output.o
d2i_DIRECTORYSTRING                               output.o
d2i_DISPLAYTEXT                                   output.o
d2i_DIST_POINT                                    output.o
d2i_DIST_POINT_NAME                               output.o
d2i_DSAPrivateKey                                 output.o
d2i_DSAPrivateKey_bio                             output.o
d2i_DSAPublicKey                                  output.o
d2i_DSA_PUBKEY                                    output.o
d2i_DSA_PUBKEY_bio                                output.o
d2i_DSA_SIG                                       output.o
d2i_DSAparams                                     output.o
d2i_ECDSA_SIG                                     output.o
d2i_ECPKPARAMETERS                                output.o
d2i_ECPKParameters                                output.o
d2i_ECParameters                                  output.o
d2i_ECPrivateKey                                  output.o
d2i_ECPrivateKey_bio                              output.o
d2i_EC_PRIVATEKEY                                 output.o
d2i_EC_PUBKEY                                     output.o
d2i_EC_PUBKEY_bio                                 output.o
d2i_EDIPARTYNAME                                  output.o
d2i_EXTENDED_KEY_USAGE                            output.o
d2i_GENERAL_NAME                                  output.o
d2i_GENERAL_NAMES                                 output.o
d2i_ISSUING_DIST_POINT                            output.o
d2i_NETSCAPE_CERT_SEQUENCE                        output.o
d2i_NETSCAPE_SPKAC                                output.o
d2i_NETSCAPE_SPKI                                 output.o
d2i_NOTICEREF                                     output.o
d2i_OCSP_BASICRESP                                output.o
d2i_OCSP_CERTID                                   output.o
d2i_OCSP_CERTSTATUS                               output.o
d2i_OCSP_CRLID                                    output.o
d2i_OCSP_ONEREQ                                   output.o
d2i_OCSP_REQINFO                                  output.o
d2i_OCSP_REQUEST                                  output.o
d2i_OCSP_RESPBYTES                                output.o
d2i_OCSP_RESPDATA                                 output.o
d2i_OCSP_RESPID                                   output.o
d2i_OCSP_RESPONSE                                 output.o
d2i_OCSP_REVOKEDINFO                              output.o
d2i_OCSP_SERVICELOC                               output.o
d2i_OCSP_SIGNATURE                                output.o
d2i_OCSP_SINGLERESP                               output.o
d2i_OTHERNAME                                     output.o
d2i_PBE2PARAM                                     output.o
d2i_PBEPARAM                                      output.o
d2i_PBKDF2PARAM                                   output.o
d2i_PKCS12                                        output.o
d2i_PKCS12_BAGS                                   output.o
d2i_PKCS12_MAC_DATA                               output.o
d2i_PKCS12_SAFEBAG                                output.o
d2i_PKCS12_bio                                    output.o
d2i_PKCS7                                         output.o
d2i_PKCS7_DIGEST                                  output.o
d2i_PKCS7_ENCRYPT                                 output.o
d2i_PKCS7_ENC_CONTENT                             output.o
d2i_PKCS7_ENVELOPE                                output.o
d2i_PKCS7_ISSUER_AND_SERIAL                       output.o
d2i_PKCS7_RECIP_INFO                              output.o
d2i_PKCS7_SIGNED                                  output.o
d2i_PKCS7_SIGNER_INFO                             output.o
d2i_PKCS7_SIGN_ENVELOPE                           output.o
d2i_PKCS7_bio                                     output.o
d2i_PKCS8PrivateKey_bio                           output.o
d2i_PKCS8_PRIV_KEY_INFO                           output.o
d2i_PKCS8_PRIV_KEY_INFO_bio                       output.o
d2i_PKCS8_bio                                     output.o
d2i_PKEY_USAGE_PERIOD                             output.o
d2i_POLICYINFO                                    output.o
d2i_POLICYQUALINFO                                output.o
d2i_PROXY_CERT_INFO_EXTENSION                     output.o
d2i_PROXY_POLICY                                  output.o
d2i_PUBKEY                                        output.o
d2i_PUBKEY_bio                                    output.o
d2i_PrivateKey                                    output.o
d2i_PrivateKey_bio                                output.o
d2i_RSAPrivateKey                                 output.o
d2i_RSAPrivateKey_bio                             output.o
d2i_RSAPublicKey                                  output.o
d2i_RSAPublicKey_bio                              output.o
d2i_RSA_PUBKEY                                    output.o
d2i_RSA_PUBKEY_bio                                output.o
d2i_SXNET                                         output.o
d2i_SXNETID                                       output.o
d2i_USERNOTICE                                    output.o
d2i_X509                                          output.o
d2i_X509_ALGOR                                    output.o
d2i_X509_ALGORS                                   output.o
d2i_X509_ATTRIBUTE                                output.o
d2i_X509_AUX                                      output.o
d2i_X509_CERT_AUX                                 output.o
d2i_X509_CERT_PAIR                                output.o
d2i_X509_CINF                                     output.o
d2i_X509_CRL                                      output.o
d2i_X509_CRL_INFO                                 output.o
d2i_X509_CRL_bio                                  output.o
d2i_X509_EXTENSION                                output.o
d2i_X509_EXTENSIONS                               output.o
d2i_X509_NAME                                     output.o
d2i_X509_NAME_ENTRY                               output.o
d2i_X509_PUBKEY                                   output.o
d2i_X509_REQ                                      output.o
d2i_X509_REQ_INFO                                 output.o
d2i_X509_REQ_bio                                  output.o
d2i_X509_REVOKED                                  output.o
d2i_X509_SIG                                      output.o
d2i_X509_VAL                                      output.o
d2i_X509_bio                                      output.o
deactivate_and_delete_urb                         output.o
debug_addstr                                      output.o
debug_gdb                                         output.o
debug_iohook                                      output.o
debug_msgregister                                 output.o
debug_msgunregister                               output.o
decryptcfg                                        output.o
default_pctx                                      output.o
dh_asn1_meth                                      output.o
dh_pkey_meth                                      output.o
disable_apic                                      output.o
do_exint_pass                                     output.o
do_externalint_enable                             output.o
do_io_nothing                                     output.o
do_iopass_default                                 output.o
do_panic_reboot                                   output.o
dom_io                                            output.o
dprintf_port                                      output.o
drhd_list_head                                    output.o
dsa_asn1_meths                                    output.o
dsa_builtin_paramgen                              output.o
dsa_pkey_meth                                     output.o
dsa_pub_internal_it                               output.o
dump_frame                                        output.o
dump_qh                                           output.o
dump_td                                           output.o
dump_td_byvirt                                    output.o
dwReaders                                         output.o
e801_fake_ax                                      output.o
e801_fake_bx                                      output.o
ec_GF2m_have_precompute_mult                      output.o
ec_GF2m_precompute_mult                           output.o
ec_GF2m_simple_add                                output.o
ec_GF2m_simple_cmp                                output.o
ec_GF2m_simple_dbl                                output.o
ec_GF2m_simple_field_div                          output.o
ec_GF2m_simple_field_mul                          output.o
ec_GF2m_simple_field_sqr                          output.o
ec_GF2m_simple_group_check_discriminant           output.o
ec_GF2m_simple_group_clear_finish                 output.o
ec_GF2m_simple_group_copy                         output.o
ec_GF2m_simple_group_finish                       output.o
ec_GF2m_simple_group_get_curve                    output.o
ec_GF2m_simple_group_get_degree                   output.o
ec_GF2m_simple_group_init                         output.o
ec_GF2m_simple_group_set_curve                    output.o
ec_GF2m_simple_invert                             output.o
ec_GF2m_simple_is_at_infinity                     output.o
ec_GF2m_simple_is_on_curve                        output.o
ec_GF2m_simple_make_affine                        output.o
ec_GF2m_simple_mul                                output.o
ec_GF2m_simple_oct2point                          output.o
ec_GF2m_simple_point2oct                          output.o
ec_GF2m_simple_point_clear_finish                 output.o
ec_GF2m_simple_point_copy                         output.o
ec_GF2m_simple_point_finish                       output.o
ec_GF2m_simple_point_get_affine_coordinates       output.o
ec_GF2m_simple_point_init                         output.o
ec_GF2m_simple_point_set_affine_coordinates       output.o
ec_GF2m_simple_point_set_to_infinity              output.o
ec_GF2m_simple_points_make_affine                 output.o
ec_GF2m_simple_set_compressed_coordinates         output.o
ec_GFp_mont_field_decode                          output.o
ec_GFp_mont_field_encode                          output.o
ec_GFp_mont_field_mul                             output.o
ec_GFp_mont_field_set_to_one                      output.o
ec_GFp_mont_field_sqr                             output.o
ec_GFp_mont_group_clear_finish                    output.o
ec_GFp_mont_group_copy                            output.o
ec_GFp_mont_group_finish                          output.o
ec_GFp_mont_group_init                            output.o
ec_GFp_mont_group_set_curve                       output.o
ec_GFp_nist_field_mul                             output.o
ec_GFp_nist_field_sqr                             output.o
ec_GFp_nist_group_copy                            output.o
ec_GFp_nist_group_set_curve                       output.o
ec_GFp_simple_add                                 output.o
ec_GFp_simple_cmp                                 output.o
ec_GFp_simple_dbl                                 output.o
ec_GFp_simple_field_mul                           output.o
ec_GFp_simple_field_sqr                           output.o
ec_GFp_simple_get_Jprojective_coordinates_GFp     output.o
ec_GFp_simple_group_check_discriminant            output.o
ec_GFp_simple_group_clear_finish                  output.o
ec_GFp_simple_group_copy                          output.o
ec_GFp_simple_group_finish                        output.o
ec_GFp_simple_group_get_curve                     output.o
ec_GFp_simple_group_get_degree                    output.o
ec_GFp_simple_group_init                          output.o
ec_GFp_simple_group_set_curve                     output.o
ec_GFp_simple_invert                              output.o
ec_GFp_simple_is_at_infinity                      output.o
ec_GFp_simple_is_on_curve                         output.o
ec_GFp_simple_make_affine                         output.o
ec_GFp_simple_oct2point                           output.o
ec_GFp_simple_point2oct                           output.o
ec_GFp_simple_point_clear_finish                  output.o
ec_GFp_simple_point_copy                          output.o
ec_GFp_simple_point_finish                        output.o
ec_GFp_simple_point_get_affine_coordinates        output.o
ec_GFp_simple_point_init                          output.o
ec_GFp_simple_point_set_affine_coordinates        output.o
ec_GFp_simple_point_set_to_infinity               output.o
ec_GFp_simple_points_make_affine                  output.o
ec_GFp_simple_set_Jprojective_coordinates_GFp     output.o
ec_GFp_simple_set_compressed_coordinates          output.o
ec_pkey_meth                                      output.o
ec_wNAF_have_precompute_mult                      output.o
ec_wNAF_mul                                       output.o
ec_wNAF_precompute_mult                           output.o
ecdh_check                                        output.o
ecdsa_check                                       output.o
eckey_asn1_meth                                   output.o
ehci_check_advance                                output.o
ehci_check_urb_advance                            output.o
ehci_cleanup_urbs                                 output.o
ehci_conceal_portroute                            output.o
ehci_deactivate_urb                               output.o
ehci_dump_alist                                   output.o
ehci_dump_all                                     output.o
ehci_dump_async                                   output.o
ehci_dump_qtd                                     output.o
ehci_dump_qtdm                                    output.o
ehci_dump_urb                                     output.o
ehci_dump_urblist                                 output.o
ehci_end_monitor_async                            output.o
ehci_host                                         output.o
ehci_init                                         output.o
ehci_monitor_async_list                           output.o
ehci_shadow_async_list                            output.o
ehci_shadow_buffer                                output.o
ehci_submit_bulk                                  output.o
ehci_submit_control                               output.o
ehci_submit_interrupt                             output.o
end                                               output.o
entry                                             output.o
entry_pd                                          output.o
entry_pd0                                         output.o
entry_pdp                                         output.o
evp_pkey_set_cb_translate                         output.o
exitprocess                                       output.o
findProtectedApplicationFromRIP                   output.o
free                                              output.o
free_config_descriptors                           output.o
free_device                                       output.o
free_page                                         output.o
free_page_phys                                    output.o
g_rgSCardT0Pci                                    output.o
g_rgSCardT1Pci                                    output.o
getCurrentProtectedApplication                    output.o
getGuestRSP                                       output.o
getMemoryOwnershipTableEntry                      output.o
getMemoryOwnershipTableIndex                      output.o
getSystemCallHandlerGPA                           output.o
getTSSGVA                                         output.o
get_acpi_time                                     output.o
get_acpi_time_raw                                 output.o
get_cpu_id                                        output.o
get_cpu_time                                      output.o
get_ept_base_HPA                                  output.o
get_guest_cr3_value                               output.o
get_guest_eptp_value                              output.o
get_gurb_by_address                               output.o
get_idman_session                                 output.o
get_page_table_base_GPA                           output.o
get_seg_access_rights                             output.o
get_seg_base                                      output.o
get_time                                          output.o
getfakesysmemmap                                  output.o
getsysmemmap                                      output.o
gmm_pass_gp2hp                                    output.o
gpaToHPA                                          output.o
gs_current                                        output.o
gs_currentcpu                                     output.o
gs_init_count                                     output.o
gs_inthandling                                    output.o
gs_nmi                                            output.o
gs_syscallstack                                   output.o
guest_int0x15_e801_fake_ax                        output.o
guest_int0x15_e801_fake_bx                        output.o
guest_int0x15_e820_data_minus0x18                 output.o
guest_int0x15_e820_end                            output.o
guest_int0x15_hook                                output.o
guest_int0x15_hook_end                            output.o
guest_int0x15_orig                                output.o
gvaToGPA                                          output.o
hContext                                          output.o
hObjectCnt                                        output.o
hSessionCnt                                       output.o
handleSystemCall                                  output.o
handle_connect_status                             output.o
handle_init_to_bsp                                output.o
handle_port_reset                                 output.o
handler_descriptor                                output.o
handler_descriptor_lock                           output.o
head                                              output.o
hex_to_string                                     output.o
hmac_asn1_meth                                    output.o
hmac_pkey_meth                                    output.o
hub_portdevice_register                           output.o
hypercall_handler                                 output.o
i2a_ACCESS_DESCRIPTION                            output.o
i2a_ASN1_INTEGER                                  output.o
i2a_ASN1_OBJECT                                   output.o
i2a_ASN1_STRING                                   output.o
i2c_ASN1_BIT_STRING                               output.o
i2c_ASN1_INTEGER                                  output.o
i2d_ACCESS_DESCRIPTION                            output.o
i2d_ASN1_BIT_STRING                               output.o
i2d_ASN1_BMPSTRING                                output.o
i2d_ASN1_BOOLEAN                                  output.o
i2d_ASN1_ENUMERATED                               output.o
i2d_ASN1_GENERALIZEDTIME                          output.o
i2d_ASN1_GENERALSTRING                            output.o
i2d_ASN1_IA5STRING                                output.o
i2d_ASN1_INTEGER                                  output.o
i2d_ASN1_NULL                                     output.o
i2d_ASN1_OBJECT                                   output.o
i2d_ASN1_OCTET_STRING                             output.o
i2d_ASN1_PRINTABLE                                output.o
i2d_ASN1_PRINTABLESTRING                          output.o
i2d_ASN1_SEQUENCE_ANY                             output.o
i2d_ASN1_SET                                      output.o
i2d_ASN1_SET_ANY                                  output.o
i2d_ASN1_T61STRING                                output.o
i2d_ASN1_TIME                                     output.o
i2d_ASN1_TYPE                                     output.o
i2d_ASN1_UNIVERSALSTRING                          output.o
i2d_ASN1_UTCTIME                                  output.o
i2d_ASN1_UTF8STRING                               output.o
i2d_ASN1_VISIBLESTRING                            output.o
i2d_ASN1_bio_stream                               output.o
i2d_ASN1_bytes                                    output.o
i2d_AUTHORITY_INFO_ACCESS                         output.o
i2d_AUTHORITY_KEYID                               output.o
i2d_BASIC_CONSTRAINTS                             output.o
i2d_CERTIFICATEPOLICIES                           output.o
i2d_CMS_ContentInfo                               output.o
i2d_CMS_bio                                       output.o
i2d_CMS_bio_stream                                output.o
i2d_CRL_DIST_POINTS                               output.o
i2d_DHparams                                      output.o
i2d_DIRECTORYSTRING                               output.o
i2d_DISPLAYTEXT                                   output.o
i2d_DIST_POINT                                    output.o
i2d_DIST_POINT_NAME                               output.o
i2d_DSAPrivateKey                                 output.o
i2d_DSAPrivateKey_bio                             output.o
i2d_DSAPublicKey                                  output.o
i2d_DSA_PUBKEY                                    output.o
i2d_DSA_PUBKEY_bio                                output.o
i2d_DSA_SIG                                       output.o
i2d_DSAparams                                     output.o
i2d_ECDSA_SIG                                     output.o
i2d_ECPKPARAMETERS                                output.o
i2d_ECPKParameters                                output.o
i2d_ECParameters                                  output.o
i2d_ECPrivateKey                                  output.o
i2d_ECPrivateKey_bio                              output.o
i2d_EC_PRIVATEKEY                                 output.o
i2d_EC_PUBKEY                                     output.o
i2d_EC_PUBKEY_bio                                 output.o
i2d_EDIPARTYNAME                                  output.o
i2d_EXTENDED_KEY_USAGE                            output.o
i2d_GENERAL_NAME                                  output.o
i2d_GENERAL_NAMES                                 output.o
i2d_ISSUING_DIST_POINT                            output.o
i2d_NETSCAPE_CERT_SEQUENCE                        output.o
i2d_NETSCAPE_SPKAC                                output.o
i2d_NETSCAPE_SPKI                                 output.o
i2d_NOTICEREF                                     output.o
i2d_OCSP_BASICRESP                                output.o
i2d_OCSP_CERTID                                   output.o
i2d_OCSP_CERTSTATUS                               output.o
i2d_OCSP_CRLID                                    output.o
i2d_OCSP_ONEREQ                                   output.o
i2d_OCSP_REQINFO                                  output.o
i2d_OCSP_REQUEST                                  output.o
i2d_OCSP_RESPBYTES                                output.o
i2d_OCSP_RESPDATA                                 output.o
i2d_OCSP_RESPID                                   output.o
i2d_OCSP_RESPONSE                                 output.o
i2d_OCSP_REVOKEDINFO                              output.o
i2d_OCSP_SERVICELOC                               output.o
i2d_OCSP_SIGNATURE                                output.o
i2d_OCSP_SINGLERESP                               output.o
i2d_OTHERNAME                                     output.o
i2d_PBE2PARAM                                     output.o
i2d_PBEPARAM                                      output.o
i2d_PBKDF2PARAM                                   output.o
i2d_PKCS12                                        output.o
i2d_PKCS12_BAGS                                   output.o
i2d_PKCS12_MAC_DATA                               output.o
i2d_PKCS12_SAFEBAG                                output.o
i2d_PKCS12_bio                                    output.o
i2d_PKCS7                                         output.o
i2d_PKCS7_DIGEST                                  output.o
i2d_PKCS7_ENCRYPT                                 output.o
i2d_PKCS7_ENC_CONTENT                             output.o
i2d_PKCS7_ENVELOPE                                output.o
i2d_PKCS7_ISSUER_AND_SERIAL                       output.o
i2d_PKCS7_NDEF                                    output.o
i2d_PKCS7_RECIP_INFO                              output.o
i2d_PKCS7_SIGNED                                  output.o
i2d_PKCS7_SIGNER_INFO                             output.o
i2d_PKCS7_SIGN_ENVELOPE                           output.o
i2d_PKCS7_bio                                     output.o
i2d_PKCS8PrivateKeyInfo_bio                       output.o
i2d_PKCS8PrivateKey_bio                           output.o
i2d_PKCS8PrivateKey_nid_bio                       output.o
i2d_PKCS8_PRIV_KEY_INFO                           output.o
i2d_PKCS8_PRIV_KEY_INFO_bio                       output.o
i2d_PKCS8_bio                                     output.o
i2d_PKEY_USAGE_PERIOD                             output.o
i2d_POLICYINFO                                    output.o
i2d_POLICYQUALINFO                                output.o
i2d_PROXY_CERT_INFO_EXTENSION                     output.o
i2d_PROXY_POLICY                                  output.o
i2d_PUBKEY                                        output.o
i2d_PUBKEY_bio                                    output.o
i2d_PrivateKey                                    output.o
i2d_PrivateKey_bio                                output.o
i2d_RSAPrivateKey                                 output.o
i2d_RSAPrivateKey_bio                             output.o
i2d_RSAPublicKey                                  output.o
i2d_RSAPublicKey_bio                              output.o
i2d_RSA_PUBKEY                                    output.o
i2d_RSA_PUBKEY_bio                                output.o
i2d_SXNET                                         output.o
i2d_SXNETID                                       output.o
i2d_USERNOTICE                                    output.o
i2d_X509                                          output.o
i2d_X509_ALGOR                                    output.o
i2d_X509_ALGORS                                   output.o
i2d_X509_ATTRIBUTE                                output.o
i2d_X509_AUX                                      output.o
i2d_X509_CERT_AUX                                 output.o
i2d_X509_CERT_PAIR                                output.o
i2d_X509_CINF                                     output.o
i2d_X509_CRL                                      output.o
i2d_X509_CRL_INFO                                 output.o
i2d_X509_CRL_bio                                  output.o
i2d_X509_EXTENSION                                output.o
i2d_X509_EXTENSIONS                               output.o
i2d_X509_NAME                                     output.o
i2d_X509_NAME_ENTRY                               output.o
i2d_X509_PUBKEY                                   output.o
i2d_X509_REQ                                      output.o
i2d_X509_REQ_INFO                                 output.o
i2d_X509_REQ_bio                                  output.o
i2d_X509_REVOKED                                  output.o
i2d_X509_SIG                                      output.o
i2d_X509_VAL                                      output.o
i2d_X509_bio                                      output.o
i2o_ECPublicKey                                   output.o
i2s_ASN1_ENUMERATED                               output.o
i2s_ASN1_ENUMERATED_TABLE                         output.o
i2s_ASN1_INTEGER                                  output.o
i2s_ASN1_OCTET_STRING                             output.o
i2t_ASN1_OBJECT                                   output.o
i2v_ASN1_BIT_STRING                               output.o
i2v_GENERAL_NAME                                  output.o
i2v_GENERAL_NAMES                                 output.o
idea_cbc_encrypt                                  output.o
idea_cfb64_encrypt                                output.o
idea_ecb_encrypt                                  output.o
idea_encrypt                                      output.o
idea_ofb64_encrypt                                output.o
idea_options                                      output.o
idea_set_decrypt_key                              output.o
idea_set_encrypt_key                              output.o
idman_reinit2                                     output.o
idman_reinit_session                              output.o
idman_user_init                                   output.o
ieee1394_init                                     output.o
init_hframelist                                   output.o
initfunc_init                                     output.o
initializeNewProtectedApplication                 output.o
int1a_TCG_CompactHashLogExtendEvent               output.o
int1a_TCG_HashAll                                 output.o
int1a_TCG_HashLogEvent                            output.o
int1a_TCG_HashLogExtendEvent                      output.o
int1a_TCG_PassThroughToTPM                        output.o
int1a_TCG_StatusCheck                             output.o
int1a_TCG_TSS                                     output.o
int_callfunc                                      output.o
int_exceptionHandler                              output.o
int_fatal                                         output.o
int_handler                                       output.o
int_init_ap                                       output.o
int_rsa_verify                                    output.o
iodom_init                                        output.o
iommu_detected                                    output.o
iommu_setup                                       output.o
ipchecksum                                        output.o
keyboard_flush                                    output.o
keyboard_reset                                    output.o
level_add_node                                    output.o
level_find_node                                   output.o
lh_delete                                         output.o
lh_doall                                          output.o
lh_doall_arg                                      output.o
lh_free                                           output.o
lh_insert                                         output.o
lh_new                                            output.o
lh_num_items                                      output.o
lh_retrieve                                       output.o
lh_strhash                                        output.o
lh_version                                        output.o
libInitFlag                                       output.o
load_bootsector                                   output.o
load_minios                                       output.o
load_new_vcpu                                     output.o
localapic_change_base_msr                         output.o
localapic_mmio_register                           output.o
localapic_wait_for_sipi                           output.o
mapHPAintoHVA                                     output.o
mapmem                                            output.o
mapmem_gphys                                      output.o
mapmem_hphys                                      output.o
matched_drhd_u                                    output.o
md4_block_data_order                              output.o
md5_block_data_order                              output.o
memcmp                                            output.o
memcpy                                            output.o
memorysize                                        output.o
mempool_allocmem                                  output.o
mempool_free                                      output.o
mempool_freemem                                   output.o
mempool_new                                       output.o
memset                                            output.o
message_exitcode                                  output.o
message_exitreason                                output.o
mm_flush_wb_cache                                 output.o
mm_force_unlock                                   output.o
mm_process_alloc                                  output.o
mm_process_free                                   output.o
mm_process_map_alloc                              output.o
mm_process_map_shared                             output.o
mm_process_map_shared_physpage                    output.o
mm_process_map_stack                              output.o
mm_process_switch                                 output.o
mm_process_unmap                                  output.o
mm_process_unmap_stack                            output.o
mm_process_unmapall                               output.o
mmio_access_memory                                output.o
mmio_access_page                                  output.o
mmio_lock                                         output.o
mmio_register                                     output.o
mmio_unlock                                       output.o
mmio_unregister                                   output.o
monitor_vmcs_read                                 output.o
monitor_vmcs_write                                output.o
move_vmm_area32                                   output.o
move_vmm_area64                                   output.o
mpudiv_128_32                                     output.o
mpumul_64_64                                      output.o
msg_findname                                      output.o
msg_register                                      output.o
msg_unregister                                    output.o
msg_unregister2                                   output.o
msg_unregisterall                                 output.o
msg_usb_bulk_read                                 output.o
msg_usb_bulk_write                                output.o
msg_usb_claim_interface                           output.o
msg_usb_close                                     output.o
msg_usb_control_msg                               output.o
msg_usb_find_busses                               output.o
msg_usb_find_devices                              output.o
msg_usb_get_busses                                output.o
msg_usb_get_string_simple                         output.o
msg_usb_init                                      output.o
msg_usb_open                                      output.o
msg_usb_release_interface                         output.o
msg_usb_reset                                     output.o
msg_vpn_FreeTimer                                 output.o
msg_vpn_GetCurrentCpuId                           output.o
msg_vpn_GetPhysicalNicInfo                        output.o
msg_vpn_GetTickCount                              output.o
msg_vpn_GetVirtualNicInfo                         output.o
msg_vpn_NewTimer                                  output.o
msg_vpn_SendPhysicalNic                           output.o
msg_vpn_SendVirtualNic                            output.o
msg_vpn_SetPhysicalNicRecvCallback                output.o
msg_vpn_SetTimer                                  output.o
msg_vpn_SetVirtualNicRecvCallback                 output.o
msg_vpn_ic_rsa_sign                               output.o
msgclose                                          output.o
msgopen                                           output.o
msgpremapbuf                                      output.o
msgregister                                       output.o
msgsendbuf                                        output.o
msgsenddesc                                       output.o
msgsendint                                        output.o
msgsetfunc                                        output.o
msgunregister                                     output.o
mszReaders                                        output.o
name_cmp                                          output.o
newprocess                                        output.o
num_dom                                           output.o
num_of_available_pages                            output.o
num_of_processors                                 output.o
numberOfProtectedApplications                     output.o
numberOfVMs                                       output.o
o2i_ECPublicKey                                   output.o
obj_cleanup_defer                                 output.o
openPage                                          output.o
packet_handle_command                             output.o
packet_handle_config                              output.o
packet_handle_invalid                             output.o
packet_handle_nondata                             output.o
packet_handle_rw                                  output.o
packet_handle_through                             output.o
panic                                             output.o
panic_oom                                         output.o
panic_test                                        output.o
panic_wakeup_all                                  output.o
parse_dmar_bios_report                            output.o
pci_append_device                                 output.o
pci_conceal_config_data_handler                   output.o
pci_conceal_new_device                            output.o
pci_config_addr_handler                           output.o
pci_config_data_handler                           output.o
pci_device_list_head                              output.o
pci_driver_list_head                              output.o
pci_handle_default_config_write                   output.o
pci_possible_new_device                           output.o
pci_print_device                                  output.o
pci_read_config_data16                            output.o
pci_read_config_data32                            output.o
pci_read_config_data8                             output.o
pci_read_config_data_port                         output.o
pci_register_driver                               output.o
pci_restore_config_addr                           output.o
pci_save_config_addr                              output.o
pci_write_config_data16                           output.o
pci_write_config_data32                           output.o
pci_write_config_data8                            output.o
pci_write_config_data_port                        output.o
pcpu_default                                      output.o
pcpu_init                                         output.o
pcpu_list_add                                     output.o
pcpu_list_foreach                                 output.o
pem_check_suffix                                  output.o
phys_in_vmm                                       output.o
phys_to_virt                                      output.o
pmap_autoalloc                                    output.o
pmap_clear                                        output.o
pmap_close                                        output.o
pmap_dump                                         output.o
pmap_getreadlevel                                 output.o
pmap_open_guest                                   output.o
pmap_open_vmm                                     output.o
pmap_pointer                                      output.o
pmap_read                                         output.o
pmap_seek                                         output.o
pmap_setlevel                                     output.o
pmap_write                                        output.o
policy_cache_find_data                            output.o
policy_cache_free                                 output.o
policy_cache_set                                  output.o
policy_cache_set_mapping                          output.o
policy_data_free                                  output.o
policy_data_new                                   output.o
policy_node_cmp_new                               output.o
policy_node_free                                  output.o
policy_node_match                                 output.o
prepare_for_sleep                                 output.o
printexitcode                                     output.o
printexitreason                                   output.o
printf                                            output.o
pro100_alloc_page                                 output.o
pro100_alloc_recv_buffer                          output.o
pro100_beep                                       output.o
pro100_config_read                                output.o
pro100_config_write                               output.o
pro100_exec_cu_op                                 output.o
pro100_flush                                      output.o
pro100_free_page                                  output.o
pro100_generate_int                               output.o
pro100_get_ctx                                    output.o
pro100_get_cu_command_string                      output.o
pro100_get_int_bit_string                         output.o
pro100_get_op_size                                output.o
pro100_get_ru_command_string                      output.o
pro100_get_stat_ack_string                        output.o
pro100_hook_read                                  output.o
pro100_hook_write                                 output.o
pro100_init                                       output.o
pro100_init_cu_base_addr                          output.o
pro100_init_recv_buffer                           output.o
pro100_init_ru_base_addr                          output.o
pro100_init_vpn_client                            output.o
pro100_io_handler                                 output.o
pro100_mem_read                                   output.o
pro100_mem_write                                  output.o
pro100_mm_handler                                 output.o
pro100_new                                        output.o
pro100_poll_ru                                    output.o
pro100_proc_guest_op                              output.o
pro100_read                                       output.o
pro100_read_send_packet                           output.o
pro100_send_packet_to_line                        output.o
pro100_sleep                                      output.o
pro100_wait_cu_ru_accepable                       output.o
pro100_write                                      output.o
pro100_write_recv_packet                          output.o
process_kill                                      output.o
process_syscall                                   output.o
processuser_no_sysenter                           output.o
processuser_syscall                               output.o
processuser_sysenter                              output.o
prohibit_iccard_init                              output.o
protectCurrentApplication                         output.o
ps2_locked                                        output.o
putchar                                           output.o
putchar_set_func                                  output.o
rand_ssleay_meth                                  output.o
read_gphys_b                                      output.o
read_gphys_l                                      output.o
read_gphys_q                                      output.o
read_gphys_w                                      output.o
read_hphys_b                                      output.o
read_hphys_l                                      output.o
read_hphys_q                                      output.o
read_hphys_w                                      output.o
read_linearaddr_b                                 output.o
read_linearaddr_l                                 output.o
read_linearaddr_q                                 output.o
read_linearaddr_tss                               output.o
read_linearaddr_w                                 output.o
readerState                                       output.o
readerTracker                                     output.o
realloc                                           output.o
reboot_test                                       output.o
register_status_callback                          output.o
restore_guest_status                              output.o
restore_register                                  output.o
resume_vm                                         output.o
ret_to_user32                                     output.o
ret_to_user64                                     output.o
ripemd160_block_data_order                        output.o
rsa_asn1_meths                                    output.o
rsa_pkey_meth                                     output.o
rt                                                output.o
s2i_ASN1_INTEGER                                  output.o
s2i_ASN1_OCTET_STRING                             output.o
sReaderContext                                    output.o
saveSystemCallHandlerAddress                      output.o
save_guest_status                                 output.o
savemsr_index                                     output.o
savemsr_load                                      output.o
savemsr_save                                      output.o
scan_gframelist                                   output.o
schedule                                          output.o
security_storage_check_lba                        output.o
segment_init_ap                                   output.o
segment_wakeup                                    output.o
serial_getDebugChar                               output.o
serial_init_iohook                                output.o
serial_putDebugChar                               output.o
serial_putchar                                    output.o
sessionTable                                      output.o
setCurrentProtectedApplication                    output.o
set_int_handler                                   output.o
set_iofunc                                        output.o
setkbdled                                         output.o
shadow_and_activate_urb                           output.o
sig_app                                           output.o
sigx_app                                          output.o
sk_delete                                         output.o
sk_delete_ptr                                     output.o
sk_dup                                            output.o
sk_find                                           output.o
sk_find_ex                                        output.o
sk_free                                           output.o
sk_insert                                         output.o
sk_is_sorted                                      output.o
sk_new                                            output.o
sk_new_null                                       output.o
sk_num                                            output.o
sk_pop                                            output.o
sk_pop_free                                       output.o
sk_push                                           output.o
sk_set                                            output.o
sk_set_cmp_func                                   output.o
sk_shift                                          output.o
sk_sort                                           output.o
sk_unshift                                        output.o
sk_value                                          output.o
sk_zero                                           output.o
sleep_set_timer_counter                           output.o
slotFlag                                          output.o
slotTable                                         output.o
snprintf                                          output.o
start_all_processors                              output.o
storage_free                                      output.o
storage_get_num_hc                                output.o
storage_handle_sectors                            output.o
storage_hc_close                                  output.o
storage_hc_dev_atacommand                         output.o
storage_hc_dev_close                              output.o
storage_hc_dev_open                               output.o
storage_hc_hook_register                          output.o
storage_hc_hook_unregister                        output.o
storage_hc_open                                   output.o
storage_hc_register                               output.o
storage_hc_scandev                                output.o
storage_hc_unregister                             output.o
storage_init                                      output.o
storage_io_aget_size                              output.o
storage_io_aread                                  output.o
storage_io_awrite                                 output.o
storage_io_deinit                                 output.o
storage_io_get_num_devices                        output.o
storage_io_init                                   output.o
storage_new                                       output.o
storage_premap_buf                                output.o
storage_premap_handle_sectors                     output.o
strcmp                                            output.o
string_to_hex                                     output.o
strlen                                            output.o
svm_available                                     output.o
svm_enable_resume                                 output.o
svm_extern_iopass                                 output.o
svm_init                                          output.o
svm_init_signal                                   output.o
svm_ioio                                          output.o
svm_msr_update_lma                                output.o
svm_np_clear_all                                  output.o
svm_np_extern_mapsearch                           output.o
svm_np_init                                       output.o
svm_np_map_1mb                                    output.o
svm_np_pagefault                                  output.o
svm_np_tlbflush                                   output.o
svm_np_updatecr3                                  output.o
svm_paging_apply_fixed_cr0                        output.o
svm_paging_apply_fixed_cr4                        output.o
svm_paging_clear_all                              output.o
svm_paging_extern_flush_tlb_entry                 output.o
svm_paging_flush_guest_tlb                        output.o
svm_paging_get_gpat                               output.o
svm_paging_init                                   output.o
svm_paging_invalidate                             output.o
svm_paging_map_1mb                                output.o
svm_paging_npf                                    output.o
svm_paging_pagefault                              output.o
svm_paging_pg_change                              output.o
svm_paging_set_gpat                               output.o
svm_paging_spt_setcr3                             output.o
svm_paging_start                                  output.o
svm_paging_tlbflush                               output.o
svm_paging_updatecr3                              output.o
svm_panic_dump                                    output.o
svm_read_control_reg                              output.o
svm_read_flags                                    output.o
svm_read_gdtr                                     output.o
svm_read_general_reg                              output.o
svm_read_idtr                                     output.o
svm_read_ip                                       output.o
svm_read_msr                                      output.o
svm_read_sreg_acr                                 output.o
svm_read_sreg_base                                output.o
svm_read_sreg_limit                               output.o
svm_read_sreg_sel                                 output.o
svm_reset                                         output.o
svm_resume                                        output.o
svm_start_vm                                      output.o
svm_vmexit                                        output.o
svm_vminit                                        output.o
svm_write_control_reg                             output.o
svm_write_flags                                   output.o
svm_write_gdtr                                    output.o
svm_write_general_reg                             output.o
svm_write_idtr                                    output.o
svm_write_ip                                      output.o
svm_write_msr                                     output.o
svm_write_realmode_seg                            output.o
svm_writing_sreg                                  output.o
sx_handler                                        output.o
sym_to_phys                                       output.o
sync_all_processors                               output.o
sys_exitprocess                                   output.o
sys_msgclose                                      output.o
sys_msgopen                                       output.o
sys_msgregister                                   output.o
sys_msgret                                        output.o
sys_msgsendbuf                                    output.o
sys_msgsenddesc                                   output.o
sys_msgsendint                                    output.o
sys_msgsetfunc                                    output.o
sys_msgunregister                                 output.o
sys_newprocess                                    output.o
syscallHandlerAddress                             output.o
syscall_entry_lret                                output.o
syscall_entry_sysexit                             output.o
syscall_entry_sysret64                            output.o
syscall_metatata_table                            output.o
tcg_measure                                       output.o
test_gpaToHPA                                     output.o
test_logicalCPUStatus                             output.o
test_start                                        output.o
test_traverseGuestPages                           output.o
thread_exit                                       output.o
thread_gettid                                     output.o
thread_new                                        output.o
thread_set_process_switch                         output.o
thread_start0                                     output.o
thread_start1                                     output.o
thread_switch                                     output.o
thread_wakeup                                     output.o
thread_will_stop                                  output.o
timer_free                                        output.o
timer_new                                         output.o
timer_set                                         output.o
traverseGuestPages                                output.o
traverseIA32ePDPT                                 output.o
traverseIA32ePDT                                  output.o
traverseIA32ePT                                   output.o
traverseIA32ePages                                output.o
tree_find_sk                                      output.o
tty_init_iohook                                   output.o
tty_putchar                                       output.o
tty_udp_register                                  output.o
ttylog_stop                                       output.o
uhci_activate_urb                                 output.o
uhci_check_advance                                output.o
uhci_check_urb_advance                            output.o
uhci_create_urb                                   output.o
uhci_current_frame_number                         output.o
uhci_deactivate_urb                               output.o
uhci_destroy_unlinked_urbs                        output.o
uhci_destroy_urb                                  output.o
uhci_dump_all                                     output.o
uhci_error_status_string                          output.o
uhci_framelist_monitor                            output.o
uhci_init                                         output.o
uhci_monitor_boost_hc                             output.o
uhci_reactivate_urb                               output.o
uhci_shadow_buffer                                output.o
uhci_submit_bulk                                  output.o
uhci_submit_control                               output.o
uhci_submit_interrupt                             output.o
unmapHPAintoHVA                                   output.o
unmapmem                                          output.o
update_mtrr_and_pat                               output.o
usb_bulk_read                                     output.o
usb_bulk_write                                    output.o
usb_busses_head                                   output.o
usb_claim_interface                               output.o
usb_clear_halt                                    output.o
usb_close                                         output.o
usb_control_msg                                   output.o
usb_find_busses                                   output.o
usb_find_devices                                  output.o
usb_get_bus                                       output.o
usb_get_busses                                    output.o
usb_get_descriptor                                output.o
usb_get_descriptor_by_endpoint                    output.o
usb_get_descriptor_early                          output.o
usb_get_string                                    output.o
usb_get_string_simple                             output.o
usb_hc_list_head                                  output.o
usb_hook_process                                  output.o
usb_hook_register                                 output.o
usb_hook_unregister                               output.o
usb_init                                          output.o
usb_init_device_monitor                           output.o
usb_interrupt_read                                output.o
usb_interrupt_write                               output.o
usb_log_level                                     output.o
usb_new_dev_handle                                output.o
usb_open                                          output.o
usb_register_host                                 output.o
usb_release_interface                             output.o
usb_reset                                         output.o
usb_resetep                                       output.o
usb_sc_lock                                       output.o
usb_sc_unlock                                     output.o
usb_set_altinterface                              output.o
usb_set_configuration                             output.o
usb_set_debug                                     output.o
usb_unregister_devices                            output.o
usbccid_init_handle                               output.o
usbhid_init_handle                                output.o
usbhub_init_handle                                output.o
usbmsc_init_handle                                output.o
use_pae                                           output.o
usleep                                            output.o
v2i_ASN1_BIT_STRING                               output.o
v2i_GENERAL_NAME                                  output.o
v2i_GENERAL_NAMES                                 output.o
v2i_GENERAL_NAME_ex                               output.o
v3_akey_id                                        output.o
v3_alt                                            output.o
v3_bcons                                          output.o
v3_cpols                                          output.o
v3_crl_hold                                       output.o
v3_crl_invdate                                    output.o
v3_crl_num                                        output.o
v3_crl_reason                                     output.o
v3_crld                                           output.o
v3_delta_crl                                      output.o
v3_ext_ku                                         output.o
v3_freshest_crl                                   output.o
v3_idp                                            output.o
v3_info                                           output.o
v3_inhibit_anyp                                   output.o
v3_key_usage                                      output.o
v3_name_constraints                               output.o
v3_ns_ia5_list                                    output.o
v3_nscert                                         output.o
v3_ocsp_accresp                                   output.o
v3_ocsp_acutoff                                   output.o
v3_ocsp_crlid                                     output.o
v3_ocsp_nocheck                                   output.o
v3_ocsp_nonce                                     output.o
v3_ocsp_serviceloc                                output.o
v3_pci                                            output.o
v3_pkey_usage_period                              output.o
v3_policy_constraints                             output.o
v3_policy_mappings                                output.o
v3_sinfo                                          output.o
v3_skey_id                                        output.o
v3_sxnet                                          output.o
vcpu_list_foreach                                 output.o
vga_fill_rect                                     output.o
vga_get_screen_size                               output.o
vga_is_ready                                      output.o
vga_register                                      output.o
vga_transfer_image                                output.o
vmctl_svm_init                                    output.o
vmctl_vt_init                                     output.o
vmm_base_cr3                                      output.o
vmm_main                                          output.o
vmm_pd                                            output.o
vmm_pd1                                           output.o
vmm_pd2                                           output.o
vmm_pdp                                           output.o
vmm_pml4                                          output.o
vmm_start_inf                                     output.o
vmm_term_inf                                      output.o
vmmcall                                           output.o
vmmcall_boot_continue                             output.o
vmmcall_boot_enable                               output.o
vmmcall_init                                      output.o
vmmcall_register                                  output.o
vmmsize                                           output.o
vpn_FreeTimer                                     output.o
vpn_GetCurrentCpuId                               output.o
vpn_GetPhysicalNicInfo                            output.o
vpn_GetTickCount                                  output.o
vpn_GetVirtualNicInfo                             output.o
vpn_NewTimer                                      output.o
vpn_SendPhysicalNic                               output.o
vpn_SendVirtualNic                                output.o
vpn_SetPhysicalNicRecvCallback                    output.o
vpn_SetTimer                                      output.o
vpn_SetVirtualNicRecvCallback                     output.o
vpn_ic_rsa_sign                                   output.o
vpn_new_nic                                       output.o
vpn_premap_PhysicalNicRecv                        output.o
vpn_premap_VirtualNicRecv                         output.o
vpn_premap_recvbuf                                output.o
vpn_start                                         output.o
vpn_user_init                                     output.o
vprintf                                           output.o
vramwrite_clearscreen                             output.o
vramwrite_exit_global                             output.o
vramwrite_get_cursor_pos                          output.o
vramwrite_init_global                             output.o
vramwrite_mark1                                   output.o
vramwrite_mark2                                   output.o
vramwrite_mark3                                   output.o
vramwrite_putchar                                 output.o
vramwrite_restore_cursor                          output.o
vramwrite_save_and_move_cursor                    output.o
vsnprintf                                         output.o
vt__vmx_init                                      output.o
vt__vmxon                                         output.o
vt_add_guest_msr                                  output.o
vt_available                                      output.o
vt_enable_resume                                  output.o
vt_ept_clear_all                                  output.o
vt_ept_extern_mapsearch                           output.o
vt_ept_init                                       output.o
vt_ept_map_1mb                                    output.o
vt_ept_tlbflush                                   output.o
vt_ept_updatecr3                                  output.o
vt_ept_violation                                  output.o
vt_extern_iopass                                  output.o
vt_generate_external_int                          output.o
vt_generate_pagefault                             output.o
vt_get_current_regs_in_vmcs                       output.o
vt_get_vmcs_regs_in_vmcs                          output.o
vt_init                                           output.o
vt_init_signal                                    output.o
vt_io                                             output.o
vt_iopass                                         output.o
vt_iopass_init                                    output.o
vt_msr_init                                       output.o
vt_msr_update_lma                                 output.o
vt_paging_apply_fixed_cr0                         output.o
vt_paging_apply_fixed_cr4                         output.o
vt_paging_clear_all                               output.o
vt_paging_extern_flush_tlb_entry                  output.o
vt_paging_flush_guest_tlb                         output.o
vt_paging_get_gpat                                output.o
vt_paging_init                                    output.o
vt_paging_invalidate                              output.o
vt_paging_map_1mb                                 output.o
vt_paging_npf                                     output.o
vt_paging_pagefault                               output.o
vt_paging_pg_change                               output.o
vt_paging_set_gpat                                output.o
vt_paging_spt_setcr3                              output.o
vt_paging_start                                   output.o
vt_paging_tlbflush                                output.o
vt_paging_updatecr3                               output.o
vt_panic_dump                                     output.o
vt_read_control_reg                               output.o
vt_read_flags                                     output.o
vt_read_gdtr                                      output.o
vt_read_general_reg                               output.o
vt_read_guest_msr                                 output.o
vt_read_idtr                                      output.o
vt_read_ip                                        output.o
vt_read_msr                                       output.o
vt_read_sreg_acr                                  output.o
vt_read_sreg_base                                 output.o
vt_read_sreg_limit                                output.o
vt_read_sreg_sel                                  output.o
vt_reset                                          output.o
vt_resume                                         output.o
vt_start_vm                                       output.o
vt_update_exception_bmp                           output.o
vt_vmexit                                         output.o
vt_vminit                                         output.o
vt_vmptrld                                        output.o
vt_write_control_reg                              output.o
vt_write_flags                                    output.o
vt_write_gdtr                                     output.o
vt_write_general_reg                              output.o
vt_write_guest_msr                                output.o
vt_write_idtr                                     output.o
vt_write_ip                                       output.o
vt_write_msr                                      output.o
vt_write_realmode_seg                             output.o
vt_writing_sreg                                   output.o
waitcycles                                        output.o
wakeup_cont                                       output.o
wakeup_entry_addr                                 output.o
wakeup_entry_cr0                                  output.o
wakeup_entry_cr3                                  output.o
wakeup_entry_cr4                                  output.o
wakeup_entry_end                                  output.o
wakeup_entry_gdtr                                 output.o
wakeup_entry_start                                output.o
wakeup_init                                       output.o
wakeup_main                                       output.o
whirlpool_block                                   output.o
write_gphys_b                                     output.o
write_gphys_l                                     output.o
write_gphys_q                                     output.o
write_gphys_w                                     output.o
write_hphys_b                                     output.o
write_hphys_l                                     output.o
write_hphys_q                                     output.o
write_hphys_w                                     output.o
write_linearaddr_b                                output.o
write_linearaddr_l                                output.o
write_linearaddr_ok_b                             output.o
write_linearaddr_ok_l                             output.o
write_linearaddr_ok_w                             output.o
write_linearaddr_q                                output.o
write_linearaddr_tss                              output.o
write_linearaddr_w                                output.o
x509_name_ff                                      output.o
